libxml-security-c.so.17:_Z10ASN2DSASigPKhPhS1_
libxml-security-c.so.17:_Z10NodeInListPK15XSECNodeListEltPKN11xercesc_3_17DOMNodeE
libxml-security-c.so.17:_Z10findDSIGIdPN11xercesc_3_17DOMNodeEPKtPK7XSECEnv
libxml-security-c.so.17:_Z10generateIdj
libxml-security-c.so.17:_Z11addHashTxfm15signatureMethod10hashMethodP13XSECCryptoKeyPN11xercesc_3_111DOMDocumentE
libxml-security-c.so.17:_Z11decodeDNamePKt
libxml-security-c.so.17:_Z11encodeDNamePKt
libxml-security-c.so.17:_Z11makeHexBytePth
libxml-security-c.so.17:_Z12attNodeCountPN11xercesc_3_110DOMElementE
libxml-security-c.so.17:_Z12findDSIGNodePN11xercesc_3_17DOMNodeEPKc
libxml-security-c.so.17:_Z12findXENCNodePN11xercesc_3_17DOMNodeEPKc
libxml-security-c.so.17:_Z12getRSASigOID10hashMethodRi
libxml-security-c.so.17:_Z13c14nCleanTextR10safeBuffer
libxml-security-c.so.17:_Z13getHashMethodPKtR10hashMethod
libxml-security-c.so.17:_Z14getECLocalNamePKN11xercesc_3_17DOMNodeE
libxml-security-c.so.17:_Z15addEnvelopeNodePN11xercesc_3_17DOMNodeER17XSECXPathNodeListS1_
libxml-security-c.so.17:_Z15cleanURIEscapesPKt
libxml-security-c.so.17:_Z15getXPFLocalNamePKN11xercesc_3_17DOMNodeE
libxml-security-c.so.17:_Z15transcodeToUTF8PKt
libxml-security-c.so.17:_Z15visiblyUtilisesPN11xercesc_3_17DOMNodeER10safeBuffer
libxml-security-c.so.17:_Z16CalculateXKMSKEKPhiS_i
libxml-security-c.so.17:_Z16DecodeFromBase64PKcPhi
libxml-security-c.so.17:_Z16getDSIGLocalNamePKN11xercesc_3_17DOMNodeE
libxml-security-c.so.17:_Z16getXENCLocalNamePKN11xercesc_3_17DOMNodeE
libxml-security-c.so.17:_Z16getXKMSLocalNamePKN11xercesc_3_17DOMNodeE
libxml-security-c.so.17:_Z17transcodeFromUTF8PKh
libxml-security-c.so.17:_Z18c14nCleanAttributeR10safeBuffer
libxml-security-c.so.17:_Z18gatherChildrenTextPN11xercesc_3_17DOMNodeER10safeBuffer
libxml-security-c.so.17:_Z18getDSIG11LocalNamePKN11xercesc_3_17DOMNodeE
libxml-security-c.so.17:_Z18getXENC11LocalNamePKN11xercesc_3_17DOMNodeE
libxml-security-c.so.17:_Z18insertNodeIntoListP15XSECNodeListEltS0_
libxml-security-c.so.17:_Z19CleanXKMSPassPhrasePhiR10safeBuffer
libxml-security-c.so.17:_Z19EncodeToBase64XMLChPhi
libxml-security-c.so.17:_Z19findNextChildOfTypePN11xercesc_3_17DOMNodeENS0_8NodeTypeE
libxml-security-c.so.17:_Z20findFirstChildOfTypePN11xercesc_3_17DOMNodeENS0_8NodeTypeE
libxml-security-c.so.17:_Z20findNextElementChildPN11xercesc_3_17DOMNodeE
libxml-security-c.so.17:_Z21DecodeFromBase64XMLChPKtPhi
libxml-security-c.so.17:_Z21TXFMOutputFileFactoryPN11xercesc_3_111DOMDocumentE
libxml-security-c.so.17:_Z21findFirstElementChildPN11xercesc_3_17DOMNodeE
libxml-security-c.so.17:_Z22XSECmapURIToHashMethodPKtR10hashMethod
libxml-security-c.so.17:_Z23SASLCleanXKMSPassPhrasePhiR10safeBuffer
libxml-security-c.so.17:_Z24addEnvelopeParentNSNodesPN11xercesc_3_17DOMNodeER17XSECXPathNodeList
libxml-security-c.so.17:_Z24compareBase64StringToRawPKcPhjj
libxml-security-c.so.17:_Z24convertRawToBase64StringR10safeBufferPhjj
libxml-security-c.so.17:_Z28XSECmapURIToSignatureMethodsPKtR15signatureMethodR10hashMethod
libxml-security-c.so.17:_Z30CalculateXKMSAuthenticationKeyPhiS_i
libxml-security-c.so.17:_Z30XSECmapURIToMaskGenerationFuncPKtR18maskGenerationFunc
libxml-security-c.so.17:_Z34XSECmapURIToCanonicalizationMethodPKtR22canonicalizationMethod
libxml-security-c.so.17:_Z46CalculateXKMSRevocationCodeIdentifierEncoding1PhiS_i
libxml-security-c.so.17:_Z46CalculateXKMSRevocationCodeIdentifierEncoding2PhiS_i
libxml-security-c.so.17:_Z51CalculateXKMSRevocationCodeIdentifierEncoding2From1PhiS_i
libxml-security-c.so.17:_Z8decodeChh
libxml-security-c.so.17:_Z9makeQNameR10safeBufferPKtPKc
libxml-security-c.so.17:_Z9makeQNameR10safeBufferPKtS2_
libxml-security-c.so.17:_Z9makeQNameR10safeBufferS0_PKc
libxml-security-c.so.17:_ZN10DSIGObject10getElementEv
libxml-security-c.so.17:_ZN10DSIGObject11appendChildEPN11xercesc_3_17DOMNodeE
libxml-security-c.so.17:_ZN10DSIGObject11getEncodingEv
libxml-security-c.so.17:_ZN10DSIGObject11getMimeTypeEv
libxml-security-c.so.17:_ZN10DSIGObject11setEncodingEPKt
libxml-security-c.so.17:_ZN10DSIGObject11setMimeTypeEPKt
libxml-security-c.so.17:_ZN10DSIGObject17createBlankObjectEv
libxml-security-c.so.17:_ZN10DSIGObject4loadEv
libxml-security-c.so.17:_ZN10DSIGObject5getIdEv
libxml-security-c.so.17:_ZN10DSIGObject5setIdEPKt
libxml-security-c.so.17:_ZN10DSIGObjectC1EPK7XSECEnv
libxml-security-c.so.17:_ZN10DSIGObjectC1EPK7XSECEnvPN11xercesc_3_17DOMNodeE
libxml-security-c.so.17:_ZN10DSIGObjectC2EPK7XSECEnv
libxml-security-c.so.17:_ZN10DSIGObjectC2EPK7XSECEnvPN11xercesc_3_17DOMNodeE
libxml-security-c.so.17:_ZN10DSIGObjectD1Ev
libxml-security-c.so.17:_ZN10DSIGObjectD2Ev
libxml-security-c.so.17:_ZN10TXFMBase6411getDocumentEv
libxml-security-c.so.17:_ZN10TXFMBase6411getNodeTypeEv
libxml-security-c.so.17:_ZN10TXFMBase6412getInputTypeEv
libxml-security-c.so.17:_ZN10TXFMBase6413getFragmentIdEv
libxml-security-c.so.17:_ZN10TXFMBase6413getOutputTypeEv
libxml-security-c.so.17:_ZN10TXFMBase6415getFragmentNodeEv
libxml-security-c.so.17:_ZN10TXFMBase648setInputEP8TXFMBase
libxml-security-c.so.17:_ZN10TXFMBase649readBytesEPhj
libxml-security-c.so.17:_ZN10TXFMBase64C1EPN11xercesc_3_111DOMDocumentEb
libxml-security-c.so.17:_ZN10TXFMBase64C2EPN11xercesc_3_111DOMDocumentEb
libxml-security-c.so.17:_ZN10TXFMBase64D0Ev
libxml-security-c.so.17:_ZN10TXFMBase64D1Ev
libxml-security-c.so.17:_ZN10TXFMBase64D2Ev
libxml-security-c.so.17:_ZN10TXFMCipher11getDocumentEv
libxml-security-c.so.17:_ZN10TXFMCipher11getNodeTypeEv
libxml-security-c.so.17:_ZN10TXFMCipher12getInputTypeEv
libxml-security-c.so.17:_ZN10TXFMCipher13getFragmentIdEv
libxml-security-c.so.17:_ZN10TXFMCipher13getOutputTypeEv
libxml-security-c.so.17:_ZN10TXFMCipher15getFragmentNodeEv
libxml-security-c.so.17:_ZN10TXFMCipher8setInputEP8TXFMBase
libxml-security-c.so.17:_ZN10TXFMCipher9readBytesEPhj
libxml-security-c.so.17:_ZN10TXFMCipherC1EPN11xercesc_3_111DOMDocumentEP13XSECCryptoKeybN22XSECCryptoSymmetricKey16SymmetricKeyModeEj
libxml-security-c.so.17:_ZN10TXFMCipherC2EPN11xercesc_3_111DOMDocumentEP13XSECCryptoKeybN22XSECCryptoSymmetricKey16SymmetricKeyModeEj
libxml-security-c.so.17:_ZN10TXFMCipherD0Ev
libxml-security-c.so.17:_ZN10TXFMCipherD1Ev
libxml-security-c.so.17:_ZN10TXFMCipherD2Ev
libxml-security-c.so.17:_ZN10TXFMParser11getDocumentEv
libxml-security-c.so.17:_ZN10TXFMParser11getNodeTypeEv
libxml-security-c.so.17:_ZN10TXFMParser12getInputTypeEv
libxml-security-c.so.17:_ZN10TXFMParser13getFragmentIdEv
libxml-security-c.so.17:_ZN10TXFMParser13getOutputTypeEv
libxml-security-c.so.17:_ZN10TXFMParser15getFragmentNodeEv
libxml-security-c.so.17:_ZN10TXFMParser16expandNameSpacesEv
libxml-security-c.so.17:_ZN10TXFMParser18nameSpacesExpandedEv
libxml-security-c.so.17:_ZN10TXFMParser8setInputEP8TXFMBase
libxml-security-c.so.17:_ZN10TXFMParser9readBytesEPhj
libxml-security-c.so.17:_ZN10TXFMParserC1EPN11xercesc_3_111DOMDocumentE
libxml-security-c.so.17:_ZN10TXFMParserC2EPN11xercesc_3_111DOMDocumentE
libxml-security-c.so.17:_ZN10TXFMParserD0Ev
libxml-security-c.so.17:_ZN10TXFMParserD1Ev
libxml-security-c.so.17:_ZN10TXFMParserD2Ev
libxml-security-c.so.17:_ZN10safeBuffer10sbMemcpyInEPKvm
libxml-security-c.so.17:_ZN10safeBuffer10sbMemcpyInEmPKvm
libxml-security-c.so.17:_ZN10safeBuffer10sbMemshiftEmmm
libxml-security-c.so.17:_ZN10safeBuffer10sbStrcatInEPKc
libxml-security-c.so.17:_ZN10safeBuffer10sbStrcatInERKS_
libxml-security-c.so.17:_ZN10safeBuffer10sbStrcpyInEPKc
libxml-security-c.so.17:_ZN10safeBuffer10sbStrcpyInERKS_
libxml-security-c.so.17:_ZN10safeBuffer10sbStrinsInEPKcm
libxml-security-c.so.17:_ZN10safeBuffer10sbStrinsInEPKtm
libxml-security-c.so.17:_ZN10safeBuffer10sbXMLChCatEPKc
libxml-security-c.so.17:_ZN10safeBuffer10sbXMLChCatEPKt
libxml-security-c.so.17:_ZN10safeBuffer11isSensitiveEv
libxml-security-c.so.17:_ZN10safeBuffer11sbStrncatInEPKcm
libxml-security-c.so.17:_ZN10safeBuffer11sbStrncpyInEPKcm
libxml-security-c.so.17:_ZN10safeBuffer11sbStrncpyInERKS_m
libxml-security-c.so.17:_ZN10safeBuffer11sbXMLChCat8EPKc
libxml-security-c.so.17:_ZN10safeBuffer13cleanseBufferEv
libxml-security-c.so.17:_ZN10safeBuffer13sbTranscodeInEPKc
libxml-security-c.so.17:_ZN10safeBuffer13sbTranscodeInEPKt
libxml-security-c.so.17:_ZN10safeBuffer13setBufferTypeENS_10bufferTypeE
libxml-security-c.so.17:_ZN10safeBuffer14checkAndExpandEm
libxml-security-c.so.17:_ZN10safeBuffer15sbXMLChAppendChEt
libxml-security-c.so.17:_ZN10safeBuffer4initEv
libxml-security-c.so.17:_ZN10safeBuffer6resizeEm
libxml-security-c.so.17:_ZN10safeBuffer8sbStrlwrEv
libxml-security-c.so.17:_ZN10safeBuffer9sbXMLChInEPKt
libxml-security-c.so.17:_ZN10safeBufferC1EPKcm
libxml-security-c.so.17:_ZN10safeBufferC1ERKS_
libxml-security-c.so.17:_ZN10safeBufferC1Em
libxml-security-c.so.17:_ZN10safeBufferC1Ev
libxml-security-c.so.17:_ZN10safeBufferC2EPKcm
libxml-security-c.so.17:_ZN10safeBufferC2ERKS_
libxml-security-c.so.17:_ZN10safeBufferC2Em
libxml-security-c.so.17:_ZN10safeBufferC2Ev
libxml-security-c.so.17:_ZN10safeBufferD1Ev
libxml-security-c.so.17:_ZN10safeBufferD2Ev
libxml-security-c.so.17:_ZN10safeBufferaSEPKt
libxml-security-c.so.17:_ZN10safeBufferaSERKS_
libxml-security-c.so.17:_ZN10safeBufferixEm
libxml-security-c.so.17:_ZN10safeBufferlsEP8TXFMBase
libxml-security-c.so.17:_ZN12TXFMEnvelope11getDocumentEv
libxml-security-c.so.17:_ZN12TXFMEnvelope11getNodeTypeEv
libxml-security-c.so.17:_ZN12TXFMEnvelope12getInputTypeEv
libxml-security-c.so.17:_ZN12TXFMEnvelope13getFragmentIdEv
libxml-security-c.so.17:_ZN12TXFMEnvelope13getOutputTypeEv
libxml-security-c.so.17:_ZN12TXFMEnvelope15getFragmentNodeEv
libxml-security-c.so.17:_ZN12TXFMEnvelope16evaluateEnvelopeEPN11xercesc_3_17DOMNodeE
libxml-security-c.so.17:_ZN12TXFMEnvelope16getXPathNodeListEv
libxml-security-c.so.17:_ZN12TXFMEnvelope8setInputEP8TXFMBase
libxml-security-c.so.17:_ZN12TXFMEnvelope9readBytesEPhj
libxml-security-c.so.17:_ZN12TXFMEnvelopeC1EPN11xercesc_3_111DOMDocumentE
libxml-security-c.so.17:_ZN12TXFMEnvelopeC2EPN11xercesc_3_111DOMDocumentE
libxml-security-c.so.17:_ZN12TXFMEnvelopeD0Ev
libxml-security-c.so.17:_ZN12TXFMEnvelopeD1Ev
libxml-security-c.so.17:_ZN12TXFMEnvelopeD2Ev
libxml-security-c.so.17:_ZN12XSECProvider12newSignatureEv
libxml-security-c.so.17:_ZN12XSECProvider13releaseCipherEP10XENCCipher
libxml-security-c.so.17:_ZN12XSECProvider16releaseSignatureEP13DSIGSignature
libxml-security-c.so.17:_ZN12XSECProvider19newSignatureFromDOMEPN11xercesc_3_111DOMDocumentE
libxml-security-c.so.17:_ZN12XSECProvider19newSignatureFromDOMEPN11xercesc_3_111DOMDocumentEPNS0_7DOMNodeE
libxml-security-c.so.17:_ZN12XSECProvider21getXKMSMessageFactoryEv
libxml-security-c.so.17:_ZN12XSECProvider21setDefaultURIResolverEP15XSECURIResolver
libxml-security-c.so.17:_ZN12XSECProvider5setupEP10XENCCipher
libxml-security-c.so.17:_ZN12XSECProvider5setupEP13DSIGSignature
libxml-security-c.so.17:_ZN12XSECProvider9newCipherEPN11xercesc_3_111DOMDocumentE
libxml-security-c.so.17:_ZN12XSECProviderC1Ev
libxml-security-c.so.17:_ZN12XSECProviderC2Ev
libxml-security-c.so.17:_ZN12XSECProviderD1Ev
libxml-security-c.so.17:_ZN12XSECProviderD2Ev
libxml-security-c.so.17:_ZN13DSIGConstants6createEv
libxml-security-c.so.17:_ZN13DSIGConstants7destroyEv
libxml-security-c.so.17:_ZN13DSIGReference10isManifestEv
libxml-security-c.so.17:_ZN13DSIGReference12addTransformEP13DSIGTransformPN11xercesc_3_110DOMElementE
libxml-security-c.so.17:_ZN13DSIGReference13calculateHashEPhj
libxml-security-c.so.17:_ZN13DSIGReference14getURIBaseTXFMEPN11xercesc_3_111DOMDocumentEPKtPK7XSECEnv
libxml-security-c.so.17:_ZN13DSIGReference14loadTransformsEPN11xercesc_3_17DOMNodeEP23XSECSafeBufferFormatterPK7XSECEnv
libxml-security-c.so.17:_ZN13DSIGReference14setPreHashTXFMEP8TXFMBase
libxml-security-c.so.17:_ZN13DSIGReference17hashReferenceListEP17DSIGReferenceListb
libxml-security-c.so.17:_ZN13DSIGReference18appendXSLTransformEPN11xercesc_3_17DOMNodeE
libxml-security-c.so.17:_ZN13DSIGReference19createTransformListEv
libxml-security-c.so.17:_ZN13DSIGReference19verifyReferenceListEP17DSIGReferenceListR10safeBuffer
libxml-security-c.so.17:_ZN13DSIGReference20appendXPathTransformEPKc
libxml-security-c.so.17:_ZN13DSIGReference20createBlankReferenceEPKt10hashMethodPc
libxml-security-c.so.17:_ZN13DSIGReference20createBlankReferenceEPKtS1_S1_
libxml-security-c.so.17:_ZN13DSIGReference21appendBase64TransformEv
libxml-security-c.so.17:_ZN13DSIGReference23createTXFMChainFromListEP8TXFMBaseP17DSIGTransformList
libxml-security-c.so.17:_ZN13DSIGReference24getManifestReferenceListEv
libxml-security-c.so.17:_ZN13DSIGReference24loadReferenceListFromXMLEPK7XSECEnvPN11xercesc_3_17DOMNodeE
libxml-security-c.so.17:_ZN13DSIGReference26appendXPathFilterTransformEv
libxml-security-c.so.17:_ZN13DSIGReference31appendCanonicalizationTransformE22canonicalizationMethod
libxml-security-c.so.17:_ZN13DSIGReference31appendCanonicalizationTransformEPKt
libxml-security-c.so.17:_ZN13DSIGReference33appendEnvelopedSignatureTransformEv
libxml-security-c.so.17:_ZN13DSIGReference4loadEv
libxml-security-c.so.17:_ZN13DSIGReference5setIdEPKt
libxml-security-c.so.17:_ZN13DSIGReference6getURIEv
libxml-security-c.so.17:_ZN13DSIGReference7setHashEv
libxml-security-c.so.17:_ZN13DSIGReference7setTypeEPKt
libxml-security-c.so.17:_ZN13DSIGReference8readHashEPhj
libxml-security-c.so.17:_ZN13DSIGReference9checkHashEv
libxml-security-c.so.17:_ZN13DSIGReferenceC1EPK7XSECEnv
libxml-security-c.so.17:_ZN13DSIGReferenceC1EPK7XSECEnvPN11xercesc_3_17DOMNodeE
libxml-security-c.so.17:_ZN13DSIGReferenceC2EPK7XSECEnv
libxml-security-c.so.17:_ZN13DSIGReferenceC2EPK7XSECEnvPN11xercesc_3_17DOMNodeE
libxml-security-c.so.17:_ZN13DSIGReferenceD1Ev
libxml-security-c.so.17:_ZN13DSIGReferenceD2Ev
libxml-security-c.so.17:_ZN13DSIGSignature10InitialiseEv
libxml-security-c.so.17:_ZN13DSIGSignature12appendObjectEv
libxml-security-c.so.17:_ZN13DSIGSignature12clearKeyInfoEv
libxml-security-c.so.17:_ZN13DSIGSignature13appendKeyNameEPKtb
libxml-security-c.so.17:_ZN13DSIGSignature13appendPGPDataEPKtS1_
libxml-security-c.so.17:_ZN13DSIGSignature13getObjectItemEi
libxml-security-c.so.17:_ZN13DSIGSignature13setECNSPrefixEPKt
libxml-security-c.so.17:_ZN13DSIGSignature13setSigningKeyEP13XSECCryptoKey
libxml-security-c.so.17:_ZN13DSIGSignature14appendMgmtDataEPKt
libxml-security-c.so.17:_ZN13DSIGSignature14appendSPKIDataEPKt
libxml-security-c.so.17:_ZN13DSIGSignature14appendX509DataEv
libxml-security-c.so.17:_ZN13DSIGSignature14setPrettyPrintEb
libxml-security-c.so.17:_ZN13DSIGSignature14setURIResolverEP15XSECURIResolver
libxml-security-c.so.17:_ZN13DSIGSignature14setXPFNSPrefixEPKt
libxml-security-c.so.17:_ZN13DSIGSignature15createReferenceEPKt10hashMethodPc
libxml-security-c.so.17:_ZN13DSIGSignature15createReferenceEPKtS1_S1_
libxml-security-c.so.17:_ZN13DSIGSignature15removeReferenceEm
libxml-security-c.so.17:_ZN13DSIGSignature15setDSIGNSPrefixEPKt
libxml-security-c.so.17:_ZN13DSIGSignature16getReferenceListEv
libxml-security-c.so.17:_ZN13DSIGSignature17appendDSAKeyValueEPKtS1_S1_S1_
libxml-security-c.so.17:_ZN13DSIGSignature17appendRSAKeyValueEPKtS1_
libxml-security-c.so.17:_ZN13DSIGSignature18getSignedInfoInputEv
libxml-security-c.so.17:_ZN13DSIGSignature18setKeyInfoResolverEP19XSECKeyInfoResolver
libxml-security-c.so.17:_ZN13DSIGSignature19verifySignatureOnlyEv
libxml-security-c.so.17:_ZN13DSIGSignature20createBlankSignatureEPN11xercesc_3_111DOMDocumentE22canonicalizationMethod15signatureMethod10hashMethod
libxml-security-c.so.17:_ZN13DSIGSignature20createBlankSignatureEPN11xercesc_3_111DOMDocumentEPKtS4_
libxml-security-c.so.17:_ZN13DSIGSignature20createKeyInfoElementEv
libxml-security-c.so.17:_ZN13DSIGSignature20setIdByAttributeNameEb
libxml-security-c.so.17:_ZN13DSIGSignature23calculateSignedInfoHashEPhj
libxml-security-c.so.17:_ZN13DSIGSignature23registerIdAttributeNameEPKt
libxml-security-c.so.17:_ZN13DSIGSignature25deregisterIdAttributeNameEPKt
libxml-security-c.so.17:_ZN13DSIGSignature25registerIdAttributeNameNSEPKtS1_
libxml-security-c.so.17:_ZN13DSIGSignature27deregisterIdAttributeNameNSEPKtS1_
libxml-security-c.so.17:_ZN13DSIGSignature27verifySignatureOnlyInternalEv
libxml-security-c.so.17:_ZN13DSIGSignature35calculateSignedInfoAndReferenceHashEPhj
libxml-security-c.so.17:_ZN13DSIGSignature4loadEv
libxml-security-c.so.17:_ZN13DSIGSignature4signEv
libxml-security-c.so.17:_ZN13DSIGSignature6verifyEv
libxml-security-c.so.17:_ZN13DSIGSignatureC1EPN11xercesc_3_111DOMDocumentEPNS0_7DOMNodeE
libxml-security-c.so.17:_ZN13DSIGSignatureC1Ev
libxml-security-c.so.17:_ZN13DSIGSignatureC2EPN11xercesc_3_111DOMDocumentEPNS0_7DOMNodeE
libxml-security-c.so.17:_ZN13DSIGSignatureC2Ev
libxml-security-c.so.17:_ZN13DSIGSignatureD1Ev
libxml-security-c.so.17:_ZN13DSIGSignatureD2Ev
libxml-security-c.so.17:_ZN13DSIGTransform19createTransformNodeEv
libxml-security-c.so.17:_ZN13TXFMDocObject11getDocumentEv
libxml-security-c.so.17:_ZN13TXFMDocObject11getNodeTypeEv
libxml-security-c.so.17:_ZN13TXFMDocObject12getInputTypeEv
libxml-security-c.so.17:_ZN13TXFMDocObject13getFragmentIdEv
libxml-security-c.so.17:_ZN13TXFMDocObject13getOutputTypeEv
libxml-security-c.so.17:_ZN13TXFMDocObject15getFragmentNodeEv
libxml-security-c.so.17:_ZN13TXFMDocObject6setEnvEPK7XSECEnv
libxml-security-c.so.17:_ZN13TXFMDocObject8setInputEP8TXFMBase
libxml-security-c.so.17:_ZN13TXFMDocObject8setInputEPN11xercesc_3_111DOMDocumentE
libxml-security-c.so.17:_ZN13TXFMDocObject8setInputEPN11xercesc_3_111DOMDocumentEPKt
libxml-security-c.so.17:_ZN13TXFMDocObject8setInputEPN11xercesc_3_111DOMDocumentEPNS0_7DOMNodeE
libxml-security-c.so.17:_ZN13TXFMDocObject9readBytesEPhj
libxml-security-c.so.17:_ZN13TXFMDocObjectC1EPN11xercesc_3_111DOMDocumentE
libxml-security-c.so.17:_ZN13TXFMDocObjectC2EPN11xercesc_3_111DOMDocumentE
libxml-security-c.so.17:_ZN13TXFMDocObjectD0Ev
libxml-security-c.so.17:_ZN13TXFMDocObjectD1Ev
libxml-security-c.so.17:_ZN13TXFMDocObjectD2Ev
libxml-security-c.so.17:_ZN13XKMSConstants6createEv
libxml-security-c.so.17:_ZN13XKMSConstants7destroyEv
libxml-security-c.so.17:_ZN13XSECException6getMsgEv
libxml-security-c.so.17:_ZN13XSECException7getTypeEv
libxml-security-c.so.17:_ZN13XSECExceptionC1ENS_17XSECExceptionTypeEPKc
libxml-security-c.so.17:_ZN13XSECExceptionC1ENS_17XSECExceptionTypeEPKt
libxml-security-c.so.17:_ZN13XSECExceptionC1ERKS_
libxml-security-c.so.17:_ZN13XSECExceptionC2ENS_17XSECExceptionTypeEPKc
libxml-security-c.so.17:_ZN13XSECExceptionC2ENS_17XSECExceptionTypeEPKt
libxml-security-c.so.17:_ZN13XSECExceptionC2ERKS_
libxml-security-c.so.17:_ZN13XSECExceptionD1Ev
libxml-security-c.so.17:_ZN13XSECExceptionD2Ev
libxml-security-c.so.17:_ZN14DSIGKeyInfoExt4loadEv
libxml-security-c.so.17:_ZN14DSIGKeyInfoExtC1EPK7XSECEnvPN11xercesc_3_17DOMNodeE
libxml-security-c.so.17:_ZN14DSIGKeyInfoExtC2EPK7XSECEnvPN11xercesc_3_17DOMNodeE
libxml-security-c.so.17:_ZN14DSIGKeyInfoExtD0Ev
libxml-security-c.so.17:_ZN14DSIGKeyInfoExtD1Ev
libxml-security-c.so.17:_ZN14DSIGKeyInfoExtD2Ev
libxml-security-c.so.17:_ZN14DSIGSignedInfo10getDOMNodeEv
libxml-security-c.so.17:_ZN14DSIGSignedInfo13getHashMethodEv
libxml-security-c.so.17:_ZN14DSIGSignedInfo15createReferenceEPKt10hashMethodPc
libxml-security-c.so.17:_ZN14DSIGSignedInfo15createReferenceEPKtS1_S1_
libxml-security-c.so.17:_ZN14DSIGSignedInfo15removeReferenceEm
libxml-security-c.so.17:_ZN14DSIGSignedInfo18getSignatureMethodEv
libxml-security-c.so.17:_ZN14DSIGSignedInfo19getHMACOutputLengthEv
libxml-security-c.so.17:_ZN14DSIGSignedInfo21createBlankSignedInfoE22canonicalizationMethod15signatureMethod10hashMethod
libxml-security-c.so.17:_ZN14DSIGSignedInfo21createBlankSignedInfoEPKtS1_
libxml-security-c.so.17:_ZN14DSIGSignedInfo25getCanonicalizationMethodEv
libxml-security-c.so.17:_ZN14DSIGSignedInfo4hashEb
libxml-security-c.so.17:_ZN14DSIGSignedInfo4loadEv
libxml-security-c.so.17:_ZN14DSIGSignedInfo6verifyER10safeBuffer
libxml-security-c.so.17:_ZN14DSIGSignedInfoC1EPN11xercesc_3_111DOMDocumentEP23XSECSafeBufferFormatterPK7XSECEnv
libxml-security-c.so.17:_ZN14DSIGSignedInfoC1EPN11xercesc_3_111DOMDocumentEP23XSECSafeBufferFormatterPNS0_7DOMNodeEPK7XSECEnv
libxml-security-c.so.17:_ZN14DSIGSignedInfoC2EPN11xercesc_3_111DOMDocumentEP23XSECSafeBufferFormatterPK7XSECEnv
libxml-security-c.so.17:_ZN14DSIGSignedInfoC2EPN11xercesc_3_111DOMDocumentEP23XSECSafeBufferFormatterPNS0_7DOMNodeEPK7XSECEnv
libxml-security-c.so.17:_ZN14DSIGSignedInfoD1Ev
libxml-security-c.so.17:_ZN14DSIGSignedInfoD2Ev
libxml-security-c.so.17:_ZN14TXFMOutputFile11getDocumentEv
libxml-security-c.so.17:_ZN14TXFMOutputFile11getNodeTypeEv
libxml-security-c.so.17:_ZN14TXFMOutputFile12getInputTypeEv
libxml-security-c.so.17:_ZN14TXFMOutputFile13getFragmentIdEv
libxml-security-c.so.17:_ZN14TXFMOutputFile13getOutputTypeEv
libxml-security-c.so.17:_ZN14TXFMOutputFile15getFragmentNodeEv
libxml-security-c.so.17:_ZN14TXFMOutputFile7setFileEPc
libxml-security-c.so.17:_ZN14TXFMOutputFile8setInputEP8TXFMBase
libxml-security-c.so.17:_ZN14TXFMOutputFile9readBytesEPhj
libxml-security-c.so.17:_ZN14TXFMOutputFileD0Ev
libxml-security-c.so.17:_ZN14TXFMOutputFileD1Ev
libxml-security-c.so.17:_ZN14TXFMOutputFileD2Ev
libxml-security-c.so.17:_ZN14XENCCipherImpl10InitialiseEv
libxml-security-c.so.17:_ZN14XENCCipherImpl10decryptKeyEP16XENCEncryptedKeyPhi
libxml-security-c.so.17:_ZN14XENCCipherImpl10decryptKeyEPN11xercesc_3_110DOMElementEPhi
libxml-security-c.so.17:_ZN14XENCCipherImpl10encryptKeyEPKhj16encryptionMethodPKt
libxml-security-c.so.17:_ZN14XENCCipherImpl11deSerialiseER10safeBufferPN11xercesc_3_17DOMNodeE
libxml-security-c.so.17:_ZN14XENCCipherImpl14decryptElementEPN11xercesc_3_110DOMElementE
libxml-security-c.so.17:_ZN14XENCCipherImpl14decryptElementEv
libxml-security-c.so.17:_ZN14XENCCipherImpl14encryptElementEPN11xercesc_3_110DOMElementE16encryptionMethodPKt
libxml-security-c.so.17:_ZN14XENCCipherImpl14getPrettyPrintEv
libxml-security-c.so.17:_ZN14XENCCipherImpl14setPrettyPrintEb
libxml-security-c.so.17:_ZN14XENCCipherImpl15setXENCNSPrefixEPKt
libxml-security-c.so.17:_ZN14XENCCipherImpl16encryptTXFMChainEP9TXFMChain16encryptionMethodPKt
libxml-security-c.so.17:_ZN14XENCCipherImpl16getEncryptedDataEv
libxml-security-c.so.17:_ZN14XENCCipherImpl16loadEncryptedKeyEPN11xercesc_3_110DOMElementE
libxml-security-c.so.17:_ZN14XENCCipherImpl17loadEncryptedDataEPN11xercesc_3_110DOMElementE
libxml-security-c.so.17:_ZN14XENCCipherImpl18setKeyInfoResolverEPK19XSECKeyInfoResolver
libxml-security-c.so.17:_ZN14XENCCipherImpl19createEncryptedDataEN14XENCCipherData18XENCCipherDataTypeEPKtS3_
libxml-security-c.so.17:_ZN14XENCCipherImpl21encryptBinInputStreamEPN11xercesc_3_114BinInputStreamE16encryptionMethodPKt
libxml-security-c.so.17:_ZN14XENCCipherImpl21encryptElementContentEPN11xercesc_3_110DOMElementE16encryptionMethodPKt
libxml-security-c.so.17:_ZN14XENCCipherImpl22decryptElementDetachedEPN11xercesc_3_110DOMElementE
libxml-security-c.so.17:_ZN14XENCCipherImpl22decryptElementDetachedEv
libxml-security-c.so.17:_ZN14XENCCipherImpl22encryptElementDetachedEPN11xercesc_3_110DOMElementE16encryptionMethodPKt
libxml-security-c.so.17:_ZN14XENCCipherImpl23decryptToBinInputStreamEPN11xercesc_3_110DOMElementE
libxml-security-c.so.17:_ZN14XENCCipherImpl25decryptKeyFromKeyInfoListEP15DSIGKeyInfoList
libxml-security-c.so.17:_ZN14XENCCipherImpl29encryptElementContentDetachedEPN11xercesc_3_110DOMElementE16encryptionMethodPKt
libxml-security-c.so.17:_ZN14XENCCipherImpl29getExclusiveC14nSerialisationEv
libxml-security-c.so.17:_ZN14XENCCipherImpl29setExclusiveC14nSerialisationEb
libxml-security-c.so.17:_ZN14XENCCipherImpl6setKEKEP13XSECCryptoKey
libxml-security-c.so.17:_ZN14XENCCipherImpl6setKeyEP13XSECCryptoKey
libxml-security-c.so.17:_ZN14XENCCipherImplC1EPN11xercesc_3_111DOMDocumentE
libxml-security-c.so.17:_ZN14XENCCipherImplC2EPN11xercesc_3_111DOMDocumentE
libxml-security-c.so.17:_ZN14XENCCipherImplD0Ev
libxml-security-c.so.17:_ZN14XENCCipherImplD1Ev
libxml-security-c.so.17:_ZN14XENCCipherImplD2Ev
libxml-security-c.so.17:_ZN14XKMSResultImpl14getMessageTypeEv
libxml-security-c.so.17:_ZN14XKMSResultImpl17createBlankResultEPKtS1_N14XKMSResultType11ResultMajorENS2_11ResultMinorE
libxml-security-c.so.17:_ZN14XKMSResultImpl4loadEv
libxml-security-c.so.17:_ZN14XKMSResultImplC1EPK7XSECEnv
libxml-security-c.so.17:_ZN14XKMSResultImplC1EPK7XSECEnvPN11xercesc_3_110DOMElementE
libxml-security-c.so.17:_ZN14XKMSResultImplC2EPK7XSECEnv
libxml-security-c.so.17:_ZN14XKMSResultImplC2EPK7XSECEnvPN11xercesc_3_110DOMElementE
libxml-security-c.so.17:_ZN14XKMSResultImplD0Ev
libxml-security-c.so.17:_ZN14XKMSResultImplD1Ev
libxml-security-c.so.17:_ZN14XKMSResultImplD2Ev
libxml-security-c.so.17:_ZN14XKMSStatusImpl15setStatusReasonEN10XKMSStatus11StatusValueENS0_12StatusReasonEb
libxml-security-c.so.17:_ZN14XKMSStatusImpl17createBlankStatusEN10XKMSStatus11StatusValueE
libxml-security-c.so.17:_ZN14XKMSStatusImpl4loadEv
libxml-security-c.so.17:_ZN14XKMSStatusImplC1EPK7XSECEnv
libxml-security-c.so.17:_ZN14XKMSStatusImplC1EPK7XSECEnvPN11xercesc_3_110DOMElementE
libxml-security-c.so.17:_ZN14XKMSStatusImplC2EPK7XSECEnv
libxml-security-c.so.17:_ZN14XKMSStatusImplC2EPK7XSECEnvPN11xercesc_3_110DOMElementE
libxml-security-c.so.17:_ZN14XKMSStatusImplD0Ev
libxml-security-c.so.17:_ZN14XKMSStatusImplD1Ev
libxml-security-c.so.17:_ZN14XKMSStatusImplD2Ev
libxml-security-c.so.17:_ZN14XSECCryptoX50911loadX509PEMEPKcj
libxml-security-c.so.17:_ZN14XSECXMLNSStack10popElementEv
libxml-security-c.so.17:_ZN14XSECXMLNSStack11pushElementEPN11xercesc_3_17DOMNodeE
libxml-security-c.so.17:_ZN14XSECXMLNSStack12addNamespaceEPN11xercesc_3_17DOMNodeE
libxml-security-c.so.17:_ZN14XSECXMLNSStack14printNamespaceEPN11xercesc_3_17DOMNodeES2_
libxml-security-c.so.17:_ZN14XSECXMLNSStack16getNextNamespaceEv
libxml-security-c.so.17:_ZN14XSECXMLNSStack17getFirstNamespaceEv
libxml-security-c.so.17:_ZN14XSECXMLNSStack19isNonEmptyDefaultNSEv
libxml-security-c.so.17:_ZN14XSECXMLNSStackC1Ev
libxml-security-c.so.17:_ZN14XSECXMLNSStackC2Ev
libxml-security-c.so.17:_ZN14XSECXMLNSStackD1Ev
libxml-security-c.so.17:_ZN14XSECXMLNSStackD2Ev
libxml-security-c.so.17:_ZN15DSIGKeyInfoList10addKeyInfoEP11DSIGKeyInfo
libxml-security-c.so.17:_ZN15DSIGKeyInfoList13addXMLKeyInfoEPN11xercesc_3_17DOMNodeE
libxml-security-c.so.17:_ZN15DSIGKeyInfoList13appendKeyNameEPKtb
libxml-security-c.so.17:_ZN15DSIGKeyInfoList13appendPGPDataEPKtS1_
libxml-security-c.so.17:_ZN15DSIGKeyInfoList13createKeyInfoEv
libxml-security-c.so.17:_ZN15DSIGKeyInfoList13removeKeyInfoEm
libxml-security-c.so.17:_ZN15DSIGKeyInfoList14appendMgmtDataEPKt
libxml-security-c.so.17:_ZN15DSIGKeyInfoList14appendSPKIDataEPKt
libxml-security-c.so.17:_ZN15DSIGKeyInfoList14appendX509DataEv
libxml-security-c.so.17:_ZN15DSIGKeyInfoList15loadListFromXMLEPN11xercesc_3_17DOMNodeE
libxml-security-c.so.17:_ZN15DSIGKeyInfoList16appendDEREncodedEPKt
libxml-security-c.so.17:_ZN15DSIGKeyInfoList17appendDSAKeyValueEPKtS1_S1_S1_
libxml-security-c.so.17:_ZN15DSIGKeyInfoList17appendRSAKeyValueEPKtS1_
libxml-security-c.so.17:_ZN15DSIGKeyInfoList19addAndInsertKeyInfoEP11DSIGKeyInfo
libxml-security-c.so.17:_ZN15DSIGKeyInfoList4itemEm
libxml-security-c.so.17:_ZN15DSIGKeyInfoList5emptyEv
libxml-security-c.so.17:_ZN15DSIGKeyInfoListC1EPK7XSECEnv
libxml-security-c.so.17:_ZN15DSIGKeyInfoListC2EPK7XSECEnv
libxml-security-c.so.17:_ZN15DSIGKeyInfoListD1Ev
libxml-security-c.so.17:_ZN15DSIGKeyInfoListD2Ev
libxml-security-c.so.17:_ZN15DSIGKeyInfoName10setKeyNameEPKtb
libxml-security-c.so.17:_ZN15DSIGKeyInfoName17getDecodedKeyNameEv
libxml-security-c.so.17:_ZN15DSIGKeyInfoName18createBlankKeyNameEPKtb
libxml-security-c.so.17:_ZN15DSIGKeyInfoName4loadEv
libxml-security-c.so.17:_ZN15DSIGKeyInfoNameC1EPK7XSECEnv
libxml-security-c.so.17:_ZN15DSIGKeyInfoNameC1EPK7XSECEnvPN11xercesc_3_17DOMNodeE
libxml-security-c.so.17:_ZN15DSIGKeyInfoNameC2EPK7XSECEnv
libxml-security-c.so.17:_ZN15DSIGKeyInfoNameC2EPK7XSECEnvPN11xercesc_3_17DOMNodeE
libxml-security-c.so.17:_ZN15DSIGKeyInfoNameD0Ev
libxml-security-c.so.17:_ZN15DSIGKeyInfoNameD1Ev
libxml-security-c.so.17:_ZN15DSIGKeyInfoNameD2Ev
libxml-security-c.so.17:_ZN15DSIGKeyInfoX50910setX509CRLEPKt
libxml-security-c.so.17:_ZN15DSIGKeyInfoX50910setX509SKIEPKt
libxml-security-c.so.17:_ZN15DSIGKeyInfoX50913appendX509CRLEPKt
libxml-security-c.so.17:_ZN15DSIGKeyInfoX50913setX509DigestEPKtS1_
libxml-security-c.so.17:_ZN15DSIGKeyInfoX50918setRawRetrievalURIEPKt
libxml-security-c.so.17:_ZN15DSIGKeyInfoX50918setX509SubjectNameEPKt
libxml-security-c.so.17:_ZN15DSIGKeyInfoX50919createBlankX509DataEv
libxml-security-c.so.17:_ZN15DSIGKeyInfoX50919setX509IssuerSerialEPKtS1_
libxml-security-c.so.17:_ZN15DSIGKeyInfoX50921appendX509CertificateEPKt
libxml-security-c.so.17:_ZN15DSIGKeyInfoX50924getCertificateCryptoItemEi
libxml-security-c.so.17:_ZN15DSIGKeyInfoX5094loadEv
libxml-security-c.so.17:_ZN15DSIGKeyInfoX509C1EPK7XSECEnv
libxml-security-c.so.17:_ZN15DSIGKeyInfoX509C1EPK7XSECEnvPN11xercesc_3_17DOMNodeE
libxml-security-c.so.17:_ZN15DSIGKeyInfoX509C2EPK7XSECEnv
libxml-security-c.so.17:_ZN15DSIGKeyInfoX509C2EPK7XSECEnvPN11xercesc_3_17DOMNodeE
libxml-security-c.so.17:_ZN15DSIGKeyInfoX509D0Ev
libxml-security-c.so.17:_ZN15DSIGKeyInfoX509D1Ev
libxml-security-c.so.17:_ZN15DSIGKeyInfoX509D2Ev
libxml-security-c.so.17:_ZN16DSIGKeyInfoValue13setRSAModulusEPKt
libxml-security-c.so.17:_ZN16DSIGKeyInfoValue14setECPublicKeyEPKt
libxml-security-c.so.17:_ZN16DSIGKeyInfoValue14setRSAExponentEPKt
libxml-security-c.so.17:_ZN16DSIGKeyInfoValue15setECNamedCurveEPKt
libxml-security-c.so.17:_ZN16DSIGKeyInfoValue21createBlankECKeyValueEPKtS1_
libxml-security-c.so.17:_ZN16DSIGKeyInfoValue22createBlankDSAKeyValueEPKtS1_S1_S1_
libxml-security-c.so.17:_ZN16DSIGKeyInfoValue22createBlankRSAKeyValueEPKtS1_
libxml-security-c.so.17:_ZN16DSIGKeyInfoValue4loadEv
libxml-security-c.so.17:_ZN16DSIGKeyInfoValue7setDSAGEPKt
libxml-security-c.so.17:_ZN16DSIGKeyInfoValue7setDSAPEPKt
libxml-security-c.so.17:_ZN16DSIGKeyInfoValue7setDSAQEPKt
libxml-security-c.so.17:_ZN16DSIGKeyInfoValue7setDSAYEPKt
libxml-security-c.so.17:_ZN16DSIGKeyInfoValueC1EPK7XSECEnv
libxml-security-c.so.17:_ZN16DSIGKeyInfoValueC1EPK7XSECEnvPN11xercesc_3_17DOMNodeE
libxml-security-c.so.17:_ZN16DSIGKeyInfoValueC2EPK7XSECEnv
libxml-security-c.so.17:_ZN16DSIGKeyInfoValueC2EPK7XSECEnvPN11xercesc_3_17DOMNodeE
libxml-security-c.so.17:_ZN16DSIGKeyInfoValueD0Ev
libxml-security-c.so.17:_ZN16DSIGKeyInfoValueD1Ev
libxml-security-c.so.17:_ZN16DSIGKeyInfoValueD2Ev
libxml-security-c.so.17:_ZN16DSIGTransformXSL13getStylesheetEv
libxml-security-c.so.17:_ZN16DSIGTransformXSL13setStylesheetEPN11xercesc_3_17DOMNodeE
libxml-security-c.so.17:_ZN16DSIGTransformXSL16getTransformTypeEv
libxml-security-c.so.17:_ZN16DSIGTransformXSL17appendTransformerEP9TXFMChain
libxml-security-c.so.17:_ZN16DSIGTransformXSL20createBlankTransformEPN11xercesc_3_111DOMDocumentE
libxml-security-c.so.17:_ZN16DSIGTransformXSL4loadEv
libxml-security-c.so.17:_ZN16DSIGTransformXSLC1EPK7XSECEnv
libxml-security-c.so.17:_ZN16DSIGTransformXSLC1EPK7XSECEnvPN11xercesc_3_17DOMNodeE
libxml-security-c.so.17:_ZN16DSIGTransformXSLC2EPK7XSECEnv
libxml-security-c.so.17:_ZN16DSIGTransformXSLC2EPK7XSECEnvPN11xercesc_3_17DOMNodeE
libxml-security-c.so.17:_ZN16DSIGTransformXSLD0Ev
libxml-security-c.so.17:_ZN16DSIGTransformXSLD1Ev
libxml-security-c.so.17:_ZN16DSIGTransformXSLD2Ev
libxml-security-c.so.17:_ZN16TXFMConcatChains11getDocumentEv
libxml-security-c.so.17:_ZN16TXFMConcatChains11getNodeTypeEv
libxml-security-c.so.17:_ZN16TXFMConcatChains12getInputTypeEv
libxml-security-c.so.17:_ZN16TXFMConcatChains13getFragmentIdEv
libxml-security-c.so.17:_ZN16TXFMConcatChains13getOutputTypeEv
libxml-security-c.so.17:_ZN16TXFMConcatChains15getFragmentNodeEv
libxml-security-c.so.17:_ZN16TXFMConcatChains8setInputEP8TXFMBase
libxml-security-c.so.17:_ZN16TXFMConcatChains8setInputEP9TXFMChain
libxml-security-c.so.17:_ZN16TXFMConcatChains9readBytesEPhj
libxml-security-c.so.17:_ZN16TXFMConcatChainsC1EPN11xercesc_3_111DOMDocumentE
libxml-security-c.so.17:_ZN16TXFMConcatChainsC2EPN11xercesc_3_111DOMDocumentE
libxml-security-c.so.17:_ZN16TXFMConcatChainsD0Ev
libxml-security-c.so.17:_ZN16TXFMConcatChainsD1Ev
libxml-security-c.so.17:_ZN16TXFMConcatChainsD2Ev
libxml-security-c.so.17:_ZN16XSECC14n2001031511setXPathMapERK17XSECXPathNodeList
libxml-security-c.so.17:_ZN16XSECC14n2001031512setExclusiveEPc
libxml-security-c.so.17:_ZN16XSECC14n2001031512setExclusiveEv
libxml-security-c.so.17:_ZN16XSECC14n2001031514setInclusive11Ev
libxml-security-c.so.17:_ZN16XSECC14n2001031515inNonExclNSListER10safeBuffer
libxml-security-c.so.17:_ZN16XSECC14n2001031515processNextNodeEv
libxml-security-c.so.17:_ZN16XSECC14n2001031516XPathSelectNodesEPKc
libxml-security-c.so.17:_ZN16XSECC14n2001031521getCommentsProcessingEv
libxml-security-c.so.17:_ZN16XSECC14n2001031521setCommentsProcessingEb
libxml-security-c.so.17:_ZN16XSECC14n2001031524checkRenderNameSpaceNodeEPN11xercesc_3_17DOMNodeES2_
libxml-security-c.so.17:_ZN16XSECC14n200103154initEv
libxml-security-c.so.17:_ZN16XSECC14n200103159stackInitEPN11xercesc_3_17DOMNodeE
libxml-security-c.so.17:_ZN16XSECC14n20010315C1EPN11xercesc_3_111DOMDocumentE
libxml-security-c.so.17:_ZN16XSECC14n20010315C1EPN11xercesc_3_111DOMDocumentEPNS0_7DOMNodeE
libxml-security-c.so.17:_ZN16XSECC14n20010315C1Ev
libxml-security-c.so.17:_ZN16XSECC14n20010315C2EPN11xercesc_3_111DOMDocumentE
libxml-security-c.so.17:_ZN16XSECC14n20010315C2EPN11xercesc_3_111DOMDocumentEPNS0_7DOMNodeE
libxml-security-c.so.17:_ZN16XSECC14n20010315C2Ev
libxml-security-c.so.17:_ZN16XSECC14n20010315D0Ev
libxml-security-c.so.17:_ZN16XSECC14n20010315D1Ev
libxml-security-c.so.17:_ZN16XSECC14n20010315D2Ev
libxml-security-c.so.17:_ZN16XSECCryptoBase6411cleanBufferEPKcjRj
libxml-security-c.so.17:_ZN17DSIGReferenceList12addReferenceEP13DSIGReference
libxml-security-c.so.17:_ZN17DSIGReferenceList15removeReferenceEm
libxml-security-c.so.17:_ZN17DSIGReferenceList4itemEm
libxml-security-c.so.17:_ZN17DSIGReferenceList5emptyEv
libxml-security-c.so.17:_ZN17DSIGReferenceList7getSizeEv
libxml-security-c.so.17:_ZN17DSIGReferenceListC1Ev
libxml-security-c.so.17:_ZN17DSIGReferenceListC2Ev
libxml-security-c.so.17:_ZN17DSIGReferenceListD1Ev
libxml-security-c.so.17:_ZN17DSIGReferenceListD2Ev
libxml-security-c.so.17:_ZN17DSIGTransformC14n13getPrefixListEv
libxml-security-c.so.17:_ZN17DSIGTransformC14n16getTransformTypeEv
libxml-security-c.so.17:_ZN17DSIGTransformC14n17appendTransformerEP9TXFMChain
libxml-security-c.so.17:_ZN17DSIGTransformC14n20createBlankTransformEPN11xercesc_3_111DOMDocumentE
libxml-security-c.so.17:_ZN17DSIGTransformC14n21addInclusiveNamespaceEPKc
libxml-security-c.so.17:_ZN17DSIGTransformC14n22setInclusiveNamespacesEPKt
libxml-security-c.so.17:_ZN17DSIGTransformC14n24clearInclusiveNamespacesEv
libxml-security-c.so.17:_ZN17DSIGTransformC14n25getCanonicalizationMethodEv
libxml-security-c.so.17:_ZN17DSIGTransformC14n25setCanonicalizationMethodE22canonicalizationMethod
libxml-security-c.so.17:_ZN17DSIGTransformC14n28createInclusiveNamespaceNodeEv
libxml-security-c.so.17:_ZN17DSIGTransformC14n4loadEv
libxml-security-c.so.17:_ZN17DSIGTransformC14nC1EPK7XSECEnv
libxml-security-c.so.17:_ZN17DSIGTransformC14nC1EPK7XSECEnvPN11xercesc_3_17DOMNodeE
libxml-security-c.so.17:_ZN17DSIGTransformC14nC2EPK7XSECEnv
libxml-security-c.so.17:_ZN17DSIGTransformC14nC2EPK7XSECEnvPN11xercesc_3_17DOMNodeE
libxml-security-c.so.17:_ZN17DSIGTransformC14nD0Ev
libxml-security-c.so.17:_ZN17DSIGTransformC14nD1Ev
libxml-security-c.so.17:_ZN17DSIGTransformC14nD2Ev
libxml-security-c.so.17:_ZN17DSIGTransformList12addTransformEP13DSIGTransform
libxml-security-c.so.17:_ZN17DSIGTransformList15removeTransformEm
libxml-security-c.so.17:_ZN17DSIGTransformList4itemEm
libxml-security-c.so.17:_ZN17DSIGTransformList5emptyEv
libxml-security-c.so.17:_ZN17DSIGTransformList7getSizeEv
libxml-security-c.so.17:_ZN17DSIGTransformListC1Ev
libxml-security-c.so.17:_ZN17DSIGTransformListC2Ev
libxml-security-c.so.17:_ZN17DSIGTransformListD1Ev
libxml-security-c.so.17:_ZN17DSIGTransformListD2Ev
libxml-security-c.so.17:_ZN17OpenSSLCryptoHash4hashEPhj
libxml-security-c.so.17:_ZN17OpenSSLCryptoHash5resetEv
libxml-security-c.so.17:_ZN17OpenSSLCryptoHash6finishEPhj
libxml-security-c.so.17:_ZN17OpenSSLCryptoHashC1EN14XSECCryptoHash8HashTypeE
libxml-security-c.so.17:_ZN17OpenSSLCryptoHashC2EN14XSECCryptoHash8HashTypeE
libxml-security-c.so.17:_ZN17OpenSSLCryptoHashD0Ev
libxml-security-c.so.17:_ZN17OpenSSLCryptoHashD1Ev
libxml-security-c.so.17:_ZN17OpenSSLCryptoHashD2Ev
libxml-security-c.so.17:_ZN17OpenSSLCryptoX50917loadX509Base64BinEPKcj
libxml-security-c.so.17:_ZN17OpenSSLCryptoX509C1EP7x509_st
libxml-security-c.so.17:_ZN17OpenSSLCryptoX509C1Ev
libxml-security-c.so.17:_ZN17OpenSSLCryptoX509C2EP7x509_st
libxml-security-c.so.17:_ZN17OpenSSLCryptoX509C2Ev
libxml-security-c.so.17:_ZN17OpenSSLCryptoX509D0Ev
libxml-security-c.so.17:_ZN17OpenSSLCryptoX509D1Ev
libxml-security-c.so.17:_ZN17OpenSSLCryptoX509D2Ev
libxml-security-c.so.17:_ZN17XSECPlatformUtils10InitialiseEP18XSECCryptoProvider
libxml-security-c.so.17:_ZN17XSECPlatformUtils17SetCryptoProviderEP18XSECCryptoProvider
libxml-security-c.so.17:_ZN17XSECPlatformUtils18blacklistAlgorithmEPKt
libxml-security-c.so.17:_ZN17XSECPlatformUtils18whitelistAlgorithmEPKt
libxml-security-c.so.17:_ZN17XSECPlatformUtils23GetReferenceLoggingSinkEPN11xercesc_3_111DOMDocumentE
libxml-security-c.so.17:_ZN17XSECPlatformUtils23SetReferenceLoggingSinkEPFP8TXFMBasePN11xercesc_3_111DOMDocumentEE
libxml-security-c.so.17:_ZN17XSECPlatformUtils24registerAlgorithmHandlerEPKtRK20XSECAlgorithmHandler
libxml-security-c.so.17:_ZN17XSECPlatformUtils9TerminateEv
libxml-security-c.so.17:_ZN17XSECXPathNodeList10removeNodeEPKN11xercesc_3_17DOMNodeE
libxml-security-c.so.17:_ZN17XSECXPathNodeList11calc_heightEPNS_5s_btnE
libxml-security-c.so.17:_ZN17XSECXPathNodeList11delete_treeEPNS_5s_btnE
libxml-security-c.so.17:_ZN17XSECXPathNodeList11rotate_leftEPNS_5s_btnE
libxml-security-c.so.17:_ZN17XSECXPathNodeList12rotate_rightEPNS_5s_btnE
libxml-security-c.so.17:_ZN17XSECXPathNodeList5clearEv
libxml-security-c.so.17:_ZN17XSECXPathNodeList7addNodeEPKN11xercesc_3_17DOMNodeE
libxml-security-c.so.17:_ZN17XSECXPathNodeList9intersectERKS_
libxml-security-c.so.17:_ZN17XSECXPathNodeListC1ERKS_
libxml-security-c.so.17:_ZN17XSECXPathNodeListC1Ej
libxml-security-c.so.17:_ZN17XSECXPathNodeListC2ERKS_
libxml-security-c.so.17:_ZN17XSECXPathNodeListC2Ej
libxml-security-c.so.17:_ZN17XSECXPathNodeListD1Ev
libxml-security-c.so.17:_ZN17XSECXPathNodeListD2Ev
libxml-security-c.so.17:_ZN17XSECXPathNodeListaSERKS_
libxml-security-c.so.17:_ZN18DSIGKeyInfoPGPData12setKeyPacketEPKt
libxml-security-c.so.17:_ZN18DSIGKeyInfoPGPData18createBlankPGPDataEPKtS1_
libxml-security-c.so.17:_ZN18DSIGKeyInfoPGPData4loadEv
libxml-security-c.so.17:_ZN18DSIGKeyInfoPGPData8setKeyIDEPKt
libxml-security-c.so.17:_ZN18DSIGKeyInfoPGPDataC1EPK7XSECEnv
libxml-security-c.so.17:_ZN18DSIGKeyInfoPGPDataC1EPK7XSECEnvPN11xercesc_3_17DOMNodeE
libxml-security-c.so.17:_ZN18DSIGKeyInfoPGPDataC2EPK7XSECEnv
libxml-security-c.so.17:_ZN18DSIGKeyInfoPGPDataC2EPK7XSECEnvPN11xercesc_3_17DOMNodeE
libxml-security-c.so.17:_ZN18DSIGKeyInfoPGPDataD0Ev
libxml-security-c.so.17:_ZN18DSIGKeyInfoPGPDataD1Ev
libxml-security-c.so.17:_ZN18DSIGKeyInfoPGPDataD2Ev
libxml-security-c.so.17:_ZN18DSIGTransformXPath12setNamespaceEPKcS1_
libxml-security-c.so.17:_ZN18DSIGTransformXPath13getExpressionEv
libxml-security-c.so.17:_ZN18DSIGTransformXPath13setExpressionEPKc
libxml-security-c.so.17:_ZN18DSIGTransformXPath15deleteNamespaceEPKc
libxml-security-c.so.17:_ZN18DSIGTransformXPath16getTransformTypeEv
libxml-security-c.so.17:_ZN18DSIGTransformXPath17appendTransformerEP9TXFMChain
libxml-security-c.so.17:_ZN18DSIGTransformXPath20createBlankTransformEPN11xercesc_3_111DOMDocumentE
libxml-security-c.so.17:_ZN18DSIGTransformXPath4loadEv
libxml-security-c.so.17:_ZN18DSIGTransformXPathC1EPK7XSECEnv
libxml-security-c.so.17:_ZN18DSIGTransformXPathC1EPK7XSECEnvPN11xercesc_3_17DOMNodeE
libxml-security-c.so.17:_ZN18DSIGTransformXPathC2EPK7XSECEnv
libxml-security-c.so.17:_ZN18DSIGTransformXPathC2EPK7XSECEnvPN11xercesc_3_17DOMNodeE
libxml-security-c.so.17:_ZN18DSIGTransformXPathD0Ev
libxml-security-c.so.17:_ZN18DSIGTransformXPathD1Ev
libxml-security-c.so.17:_ZN18DSIGTransformXPathD2Ev
libxml-security-c.so.17:_ZN18OpenSSLCryptoKeyEC19loadPublicKeyBase64EPKcS1_j
libxml-security-c.so.17:_ZN18OpenSSLCryptoKeyEC22signBase64SignatureDSAEPhjPcj
libxml-security-c.so.17:_ZN18OpenSSLCryptoKeyEC24verifyBase64SignatureDSAEPhjPcj
libxml-security-c.so.17:_ZN18OpenSSLCryptoKeyECC1EP11evp_pkey_st
libxml-security-c.so.17:_ZN18OpenSSLCryptoKeyECC1Ev
libxml-security-c.so.17:_ZN18OpenSSLCryptoKeyECC2EP11evp_pkey_st
libxml-security-c.so.17:_ZN18OpenSSLCryptoKeyECC2Ev
libxml-security-c.so.17:_ZN18OpenSSLCryptoKeyECD0Ev
libxml-security-c.so.17:_ZN18OpenSSLCryptoKeyECD1Ev
libxml-security-c.so.17:_ZN18OpenSSLCryptoKeyECD2Ev
libxml-security-c.so.17:_ZN18XENCCipherDataImpl14getCipherValueEv
libxml-security-c.so.17:_ZN18XENCCipherDataImpl17getCipherDataTypeEv
libxml-security-c.so.17:_ZN18XENCCipherDataImpl18getCipherReferenceEv
libxml-security-c.so.17:_ZN18XENCCipherDataImpl21createBlankCipherDataEN14XENCCipherData18XENCCipherDataTypeEPKt
libxml-security-c.so.17:_ZN18XENCCipherDataImpl4loadEv
libxml-security-c.so.17:_ZN18XENCCipherDataImplC1EPK7XSECEnv
libxml-security-c.so.17:_ZN18XENCCipherDataImplC1EPK7XSECEnvPN11xercesc_3_110DOMElementE
libxml-security-c.so.17:_ZN18XENCCipherDataImplC2EPK7XSECEnv
libxml-security-c.so.17:_ZN18XENCCipherDataImplC2EPK7XSECEnvPN11xercesc_3_110DOMElementE
libxml-security-c.so.17:_ZN18XENCCipherDataImplD0Ev
libxml-security-c.so.17:_ZN18XENCCipherDataImplD1Ev
libxml-security-c.so.17:_ZN18XENCCipherDataImplD2Ev
libxml-security-c.so.17:_ZN18XKMSKeyBindingImpl21createBlankKeyBindingEN10XKMSStatus11StatusValueE
libxml-security-c.so.17:_ZN18XKMSKeyBindingImpl4loadEv
libxml-security-c.so.17:_ZN18XKMSKeyBindingImplC1EPK7XSECEnv
libxml-security-c.so.17:_ZN18XKMSKeyBindingImplC1EPK7XSECEnvPN11xercesc_3_110DOMElementE
libxml-security-c.so.17:_ZN18XKMSKeyBindingImplC2EPK7XSECEnv
libxml-security-c.so.17:_ZN18XKMSKeyBindingImplC2EPK7XSECEnvPN11xercesc_3_110DOMElementE
libxml-security-c.so.17:_ZN18XKMSKeyBindingImplD0Ev
libxml-security-c.so.17:_ZN18XKMSKeyBindingImplD1Ev
libxml-security-c.so.17:_ZN18XKMSKeyBindingImplD2Ev
libxml-security-c.so.17:_ZN18XKMSRSAKeyPairImpl29createBlankXKMSRSAKeyPairImplEPKtS1_S1_S1_S1_S1_S1_S1_
libxml-security-c.so.17:_ZN18XKMSRSAKeyPairImpl4loadEv
libxml-security-c.so.17:_ZN18XKMSRSAKeyPairImplC1EPK7XSECEnv
libxml-security-c.so.17:_ZN18XKMSRSAKeyPairImplC1EPK7XSECEnvPN11xercesc_3_110DOMElementE
libxml-security-c.so.17:_ZN18XKMSRSAKeyPairImplC2EPK7XSECEnv
libxml-security-c.so.17:_ZN18XKMSRSAKeyPairImplC2EPK7XSECEnvPN11xercesc_3_110DOMElementE
libxml-security-c.so.17:_ZN18XKMSRSAKeyPairImplD0Ev
libxml-security-c.so.17:_ZN18XKMSRSAKeyPairImplD1Ev
libxml-security-c.so.17:_ZN18XKMSRSAKeyPairImplD2Ev
libxml-security-c.so.17:_ZN18XKMSResultTypeImpl12setRequestIdEPKt
libxml-security-c.so.17:_ZN18XKMSResultTypeImpl14setResultMajorEN14XKMSResultType11ResultMajorE
libxml-security-c.so.17:_ZN18XKMSResultTypeImpl14setResultMinorEN14XKMSResultType11ResultMinorE
libxml-security-c.so.17:_ZN18XKMSResultTypeImpl21createBlankResultTypeEPKtS1_S1_N14XKMSResultType11ResultMajorENS2_11ResultMinorE
libxml-security-c.so.17:_ZN18XKMSResultTypeImpl24setRequestSignatureValueEPKt
libxml-security-c.so.17:_ZN18XKMSResultTypeImpl4loadEv
libxml-security-c.so.17:_ZN18XKMSResultTypeImplC1EPK7XSECEnv
libxml-security-c.so.17:_ZN18XKMSResultTypeImplC1EPK7XSECEnvPN11xercesc_3_110DOMElementE
libxml-security-c.so.17:_ZN18XKMSResultTypeImplC2EPK7XSECEnv
libxml-security-c.so.17:_ZN18XKMSResultTypeImplC2EPK7XSECEnvPN11xercesc_3_110DOMElementE
libxml-security-c.so.17:_ZN18XKMSResultTypeImplD0Ev
libxml-security-c.so.17:_ZN18XKMSResultTypeImplD1Ev
libxml-security-c.so.17:_ZN18XKMSResultTypeImplD2Ev
libxml-security-c.so.17:_ZN18XKMSUseKeyWithImpl13setIdentifierEPKt
libxml-security-c.so.17:_ZN18XKMSUseKeyWithImpl14setApplicationEPKt
libxml-security-c.so.17:_ZN18XKMSUseKeyWithImpl21createBlankUseKeyWithEPKtS1_
libxml-security-c.so.17:_ZN18XKMSUseKeyWithImpl4loadEv
libxml-security-c.so.17:_ZN18XKMSUseKeyWithImplC1EPK7XSECEnv
libxml-security-c.so.17:_ZN18XKMSUseKeyWithImplC1EPK7XSECEnvPN11xercesc_3_110DOMElementE
libxml-security-c.so.17:_ZN18XKMSUseKeyWithImplC2EPK7XSECEnv
libxml-security-c.so.17:_ZN18XKMSUseKeyWithImplC2EPK7XSECEnvPN11xercesc_3_110DOMElementE
libxml-security-c.so.17:_ZN18XKMSUseKeyWithImplD0Ev
libxml-security-c.so.17:_ZN18XKMSUseKeyWithImplD1Ev
libxml-security-c.so.17:_ZN18XKMSUseKeyWithImplD2Ev
libxml-security-c.so.17:_ZN19DSIGKeyInfoMgmtData19createBlankMgmtDataEPKt
libxml-security-c.so.17:_ZN19DSIGKeyInfoMgmtData4loadEv
libxml-security-c.so.17:_ZN19DSIGKeyInfoMgmtData7setDataEPKt
libxml-security-c.so.17:_ZN19DSIGKeyInfoMgmtDataC1EPK7XSECEnv
libxml-security-c.so.17:_ZN19DSIGKeyInfoMgmtDataC1EPK7XSECEnvPN11xercesc_3_17DOMNodeE
libxml-security-c.so.17:_ZN19DSIGKeyInfoMgmtDataC2EPK7XSECEnv
libxml-security-c.so.17:_ZN19DSIGKeyInfoMgmtDataC2EPK7XSECEnvPN11xercesc_3_17DOMNodeE
libxml-security-c.so.17:_ZN19DSIGKeyInfoMgmtDataD0Ev
libxml-security-c.so.17:_ZN19DSIGKeyInfoMgmtDataD1Ev
libxml-security-c.so.17:_ZN19DSIGKeyInfoMgmtDataD2Ev
libxml-security-c.so.17:_ZN19DSIGKeyInfoSPKIData10appendSexpEPKt
libxml-security-c.so.17:_ZN19DSIGKeyInfoSPKIData19createBlankSPKIDataEPKt
libxml-security-c.so.17:_ZN19DSIGKeyInfoSPKIData4loadEv
libxml-security-c.so.17:_ZN19DSIGKeyInfoSPKIDataC1EPK7XSECEnv
libxml-security-c.so.17:_ZN19DSIGKeyInfoSPKIDataC1EPK7XSECEnvPN11xercesc_3_17DOMNodeE
libxml-security-c.so.17:_ZN19DSIGKeyInfoSPKIDataC2EPK7XSECEnv
libxml-security-c.so.17:_ZN19DSIGKeyInfoSPKIDataC2EPK7XSECEnvPN11xercesc_3_17DOMNodeE
libxml-security-c.so.17:_ZN19DSIGKeyInfoSPKIDataD0Ev
libxml-security-c.so.17:_ZN19DSIGKeyInfoSPKIDataD1Ev
libxml-security-c.so.17:_ZN19DSIGKeyInfoSPKIDataD2Ev
libxml-security-c.so.17:_ZN19DSIGTransformBase6416getTransformTypeEv
libxml-security-c.so.17:_ZN19DSIGTransformBase6417appendTransformerEP9TXFMChain
libxml-security-c.so.17:_ZN19DSIGTransformBase6420createBlankTransformEPN11xercesc_3_111DOMDocumentE
libxml-security-c.so.17:_ZN19DSIGTransformBase644loadEv
libxml-security-c.so.17:_ZN19DSIGTransformBase64C1EPK7XSECEnv
libxml-security-c.so.17:_ZN19DSIGTransformBase64C1EPK7XSECEnvPN11xercesc_3_17DOMNodeE
libxml-security-c.so.17:_ZN19DSIGTransformBase64C2EPK7XSECEnv
libxml-security-c.so.17:_ZN19DSIGTransformBase64C2EPK7XSECEnvPN11xercesc_3_17DOMNodeE
libxml-security-c.so.17:_ZN19DSIGTransformBase64D0Ev
libxml-security-c.so.17:_ZN19DSIGTransformBase64D1Ev
libxml-security-c.so.17:_ZN19DSIGTransformBase64D2Ev
libxml-security-c.so.17:_ZN19DSIGXPathFilterExpr12setNamespaceEPKtS1_
libxml-security-c.so.17:_ZN19DSIGXPathFilterExpr13getFilterTypeEv
libxml-security-c.so.17:_ZN19DSIGXPathFilterExpr15deleteNamespaceEPKt
libxml-security-c.so.17:_ZN19DSIGXPathFilterExpr4loadEv
libxml-security-c.so.17:_ZN19DSIGXPathFilterExpr9setFilterE15xpathFilterTypePKt
libxml-security-c.so.17:_ZN19DSIGXPathFilterExprC1EPK7XSECEnv
libxml-security-c.so.17:_ZN19DSIGXPathFilterExprC1EPK7XSECEnvPN11xercesc_3_17DOMNodeE
libxml-security-c.so.17:_ZN19DSIGXPathFilterExprC2EPK7XSECEnv
libxml-security-c.so.17:_ZN19DSIGXPathFilterExprC2EPK7XSECEnvPN11xercesc_3_17DOMNodeE
libxml-security-c.so.17:_ZN19DSIGXPathFilterExprD1Ev
libxml-security-c.so.17:_ZN19DSIGXPathFilterExprD2Ev
libxml-security-c.so.17:_ZN19OpenSSLCryptoBase6410decodeInitEv
libxml-security-c.so.17:_ZN19OpenSSLCryptoBase6410encodeInitEv
libxml-security-c.so.17:_ZN19OpenSSLCryptoBase6412decodeFinishEPhj
libxml-security-c.so.17:_ZN19OpenSSLCryptoBase6412encodeFinishEPhj
libxml-security-c.so.17:_ZN19OpenSSLCryptoBase646b642BNEPcj
libxml-security-c.so.17:_ZN19OpenSSLCryptoBase646decodeEPKhjPhj
libxml-security-c.so.17:_ZN19OpenSSLCryptoBase646encodeEPKhjPhj
libxml-security-c.so.17:_ZN19OpenSSLCryptoKeyDSA18loadGBase64BigNumsEPKcj
libxml-security-c.so.17:_ZN19OpenSSLCryptoKeyDSA18loadJBase64BigNumsEPKcj
libxml-security-c.so.17:_ZN19OpenSSLCryptoKeyDSA18loadPBase64BigNumsEPKcj
libxml-security-c.so.17:_ZN19OpenSSLCryptoKeyDSA18loadQBase64BigNumsEPKcj
libxml-security-c.so.17:_ZN19OpenSSLCryptoKeyDSA18loadYBase64BigNumsEPKcj
libxml-security-c.so.17:_ZN19OpenSSLCryptoKeyDSA19signBase64SignatureEPhjPcj
libxml-security-c.so.17:_ZN19OpenSSLCryptoKeyDSA21verifyBase64SignatureEPhjPcj
libxml-security-c.so.17:_ZN19OpenSSLCryptoKeyDSAC1EP11evp_pkey_st
libxml-security-c.so.17:_ZN19OpenSSLCryptoKeyDSAC1Ev
libxml-security-c.so.17:_ZN19OpenSSLCryptoKeyDSAC2EP11evp_pkey_st
libxml-security-c.so.17:_ZN19OpenSSLCryptoKeyDSAC2Ev
libxml-security-c.so.17:_ZN19OpenSSLCryptoKeyDSAD0Ev
libxml-security-c.so.17:_ZN19OpenSSLCryptoKeyDSAD1Ev
libxml-security-c.so.17:_ZN19OpenSSLCryptoKeyDSAD2Ev
libxml-security-c.so.17:_ZN19OpenSSLCryptoKeyRSA13publicEncryptEPKhPhjjN16XSECCryptoKeyRSA11PaddingTypeE10hashMethod
libxml-security-c.so.17:_ZN19OpenSSLCryptoKeyRSA13setOAEPparamsEPhj
libxml-security-c.so.17:_ZN19OpenSSLCryptoKeyRSA14privateDecryptEPKhPhjjN16XSECCryptoKeyRSA11PaddingTypeE10hashMethod
libxml-security-c.so.17:_ZN19OpenSSLCryptoKeyRSA28signSHA1PKCS1Base64SignatureEPhjPcj10hashMethod
libxml-security-c.so.17:_ZN19OpenSSLCryptoKeyRSA30loadPublicModulusBase64BigNumsEPKcj
libxml-security-c.so.17:_ZN19OpenSSLCryptoKeyRSA30verifySHA1PKCS1Base64SignatureEPKhjPKcj10hashMethod
libxml-security-c.so.17:_ZN19OpenSSLCryptoKeyRSA31loadPublicExponentBase64BigNumsEPKcj
libxml-security-c.so.17:_ZN19OpenSSLCryptoKeyRSA6setMGFE18maskGenerationFunc
libxml-security-c.so.17:_ZN19OpenSSLCryptoKeyRSAC1EP11evp_pkey_st
libxml-security-c.so.17:_ZN19OpenSSLCryptoKeyRSAC1Ev
libxml-security-c.so.17:_ZN19OpenSSLCryptoKeyRSAC2EP11evp_pkey_st
libxml-security-c.so.17:_ZN19OpenSSLCryptoKeyRSAC2Ev
libxml-security-c.so.17:_ZN19OpenSSLCryptoKeyRSAD0Ev
libxml-security-c.so.17:_ZN19OpenSSLCryptoKeyRSAD1Ev
libxml-security-c.so.17:_ZN19OpenSSLCryptoKeyRSAD2Ev
libxml-security-c.so.17:_ZN19XENCCipherValueImpl15setCipherStringEPKt
libxml-security-c.so.17:_ZN19XENCCipherValueImpl22createBlankCipherValueEPKt
libxml-security-c.so.17:_ZN19XENCCipherValueImpl4loadEv
libxml-security-c.so.17:_ZN19XENCCipherValueImplC1EPK7XSECEnv
libxml-security-c.so.17:_ZN19XENCCipherValueImplC1EPK7XSECEnvPN11xercesc_3_110DOMElementE
libxml-security-c.so.17:_ZN19XENCCipherValueImplC2EPK7XSECEnv
libxml-security-c.so.17:_ZN19XENCCipherValueImplC2EPK7XSECEnvPN11xercesc_3_110DOMElementE
libxml-security-c.so.17:_ZN19XENCCipherValueImplD0Ev
libxml-security-c.so.17:_ZN19XENCCipherValueImplD1Ev
libxml-security-c.so.17:_ZN19XENCCipherValueImplD2Ev
libxml-security-c.so.17:_ZN19XKMSRespondWithImpl20setRespondWithStringEPKt
libxml-security-c.so.17:_ZN19XKMSRespondWithImpl22createBlankRespondWithEPKt
libxml-security-c.so.17:_ZN19XKMSRespondWithImpl4loadEv
libxml-security-c.so.17:_ZN19XKMSRespondWithImplC1EPK7XSECEnv
libxml-security-c.so.17:_ZN19XKMSRespondWithImplC1EPK7XSECEnvPN11xercesc_3_110DOMElementE
libxml-security-c.so.17:_ZN19XKMSRespondWithImplC2EPK7XSECEnv
libxml-security-c.so.17:_ZN19XKMSRespondWithImplC2EPK7XSECEnvPN11xercesc_3_110DOMElementE
libxml-security-c.so.17:_ZN19XKMSRespondWithImplD0Ev
libxml-security-c.so.17:_ZN19XKMSRespondWithImplD1Ev
libxml-security-c.so.17:_ZN19XKMSRespondWithImplD2Ev
libxml-security-c.so.17:_ZN19XSCryptCryptoBase6410decodeInitEv
libxml-security-c.so.17:_ZN19XSCryptCryptoBase6410encodeInitEv
libxml-security-c.so.17:_ZN19XSCryptCryptoBase6412decodeFinishEPhj
libxml-security-c.so.17:_ZN19XSCryptCryptoBase6412encodeFinishEPhj
libxml-security-c.so.17:_ZN19XSCryptCryptoBase6417canonicaliseInputEPKhj
libxml-security-c.so.17:_ZN19XSCryptCryptoBase646decodeEPKhjPhj
libxml-security-c.so.17:_ZN19XSCryptCryptoBase646encodeEPKhjPhj
libxml-security-c.so.17:_ZN19XSECAlgorithmMapper15registerHandlerEPKtRK20XSECAlgorithmHandler
libxml-security-c.so.17:_ZN19XSECAlgorithmMapper18blacklistAlgorithmEPKt
libxml-security-c.so.17:_ZN19XSECAlgorithmMapper18whitelistAlgorithmEPKt
libxml-security-c.so.17:_ZN19XSECAlgorithmMapperC1Ev
libxml-security-c.so.17:_ZN19XSECAlgorithmMapperC2Ev
libxml-security-c.so.17:_ZN19XSECAlgorithmMapperD1Ev
libxml-security-c.so.17:_ZN19XSECAlgorithmMapperD2Ev
libxml-security-c.so.17:_ZN19XSECCryptoException6getMsgEv
libxml-security-c.so.17:_ZN19XSECCryptoException7getTypeEv
libxml-security-c.so.17:_ZN19XSECCryptoExceptionC1ENS_23XSECCryptoExceptionTypeEPKc
libxml-security-c.so.17:_ZN19XSECCryptoExceptionC1ENS_23XSECCryptoExceptionTypeER10safeBuffer
libxml-security-c.so.17:_ZN19XSECCryptoExceptionC1ERKS_
libxml-security-c.so.17:_ZN19XSECCryptoExceptionC2ENS_23XSECCryptoExceptionTypeEPKc
libxml-security-c.so.17:_ZN19XSECCryptoExceptionC2ENS_23XSECCryptoExceptionTypeER10safeBuffer
libxml-security-c.so.17:_ZN19XSECCryptoExceptionC2ERKS_
libxml-security-c.so.17:_ZN19XSECCryptoExceptionD1Ev
libxml-security-c.so.17:_ZN19XSECCryptoExceptionD2Ev
libxml-security-c.so.17:_ZN19XSECDomToSafeBufferC1EPN11xercesc_3_17DOMNodeE
libxml-security-c.so.17:_ZN19XSECDomToSafeBufferC2EPN11xercesc_3_17DOMNodeE
libxml-security-c.so.17:_ZN19XSECTXFMInputSourceC1EP9TXFMChainb
libxml-security-c.so.17:_ZN19XSECTXFMInputSourceC2EP9TXFMChainb
libxml-security-c.so.17:_ZN19XSECTXFMInputSourceD0Ev
libxml-security-c.so.17:_ZN19XSECTXFMInputSourceD1Ev
libxml-security-c.so.17:_ZN19XSECTXFMInputSourceD2Ev
libxml-security-c.so.17:_ZN20OpenSSLCryptoKeyHMAC6setKeyEPhj
libxml-security-c.so.17:_ZN20OpenSSLCryptoKeyHMACC1Ev
libxml-security-c.so.17:_ZN20OpenSSLCryptoKeyHMACC2Ev
libxml-security-c.so.17:_ZN20XENCEncryptedKeyImpl12setRecipientEPKt
libxml-security-c.so.17:_ZN20XENCEncryptedKeyImpl17setCarriedKeyNameEPKt
libxml-security-c.so.17:_ZN20XENCEncryptedKeyImpl23createBlankEncryptedKeyEN14XENCCipherData18XENCCipherDataTypeEPKtS3_
libxml-security-c.so.17:_ZN20XENCEncryptedKeyImpl4loadEv
libxml-security-c.so.17:_ZN20XENCEncryptedKeyImplC1EPK7XSECEnv
libxml-security-c.so.17:_ZN20XENCEncryptedKeyImplC1EPK7XSECEnvPN11xercesc_3_110DOMElementE
libxml-security-c.so.17:_ZN20XENCEncryptedKeyImplC2EPK7XSECEnv
libxml-security-c.so.17:_ZN20XENCEncryptedKeyImplC2EPK7XSECEnvPN11xercesc_3_110DOMElementE
libxml-security-c.so.17:_ZN20XENCEncryptedKeyImplD0Ev
libxml-security-c.so.17:_ZN20XENCEncryptedKeyImplD1Ev
libxml-security-c.so.17:_ZN20XENCEncryptedKeyImplD2Ev
libxml-security-c.so.17:_ZN20XKMSLocateResultImpl14getMessageTypeEv
libxml-security-c.so.17:_ZN20XKMSLocateResultImpl23createBlankLocateResultEPKtS1_N14XKMSResultType11ResultMajorENS2_11ResultMinorE
libxml-security-c.so.17:_ZN20XKMSLocateResultImpl30appendUnverifiedKeyBindingItemEv
libxml-security-c.so.17:_ZN20XKMSLocateResultImpl4loadEv
libxml-security-c.so.17:_ZN20XKMSLocateResultImplC1EPK7XSECEnv
libxml-security-c.so.17:_ZN20XKMSLocateResultImplC1EPK7XSECEnvPN11xercesc_3_110DOMElementE
libxml-security-c.so.17:_ZN20XKMSLocateResultImplC2EPK7XSECEnv
libxml-security-c.so.17:_ZN20XKMSLocateResultImplC2EPK7XSECEnvPN11xercesc_3_110DOMElementE
libxml-security-c.so.17:_ZN20XKMSLocateResultImplD0Ev
libxml-security-c.so.17:_ZN20XKMSLocateResultImplD1Ev
libxml-security-c.so.17:_ZN20XKMSLocateResultImplD2Ev
libxml-security-c.so.17:_ZN20XKMSRevokeResultImpl14getMessageTypeEv
libxml-security-c.so.17:_ZN20XKMSRevokeResultImpl20appendKeyBindingItemEN10XKMSStatus11StatusValueE
libxml-security-c.so.17:_ZN20XKMSRevokeResultImpl23createBlankRevokeResultEPKtS1_N14XKMSResultType11ResultMajorENS2_11ResultMinorE
libxml-security-c.so.17:_ZN20XKMSRevokeResultImpl4loadEv
libxml-security-c.so.17:_ZN20XKMSRevokeResultImplC1EPK7XSECEnv
libxml-security-c.so.17:_ZN20XKMSRevokeResultImplC1EPK7XSECEnvPN11xercesc_3_110DOMElementE
libxml-security-c.so.17:_ZN20XKMSRevokeResultImplC2EPK7XSECEnv
libxml-security-c.so.17:_ZN20XKMSRevokeResultImplC2EPK7XSECEnvPN11xercesc_3_110DOMElementE
libxml-security-c.so.17:_ZN20XKMSRevokeResultImplD0Ev
libxml-security-c.so.17:_ZN20XKMSRevokeResultImplD1Ev
libxml-security-c.so.17:_ZN20XKMSRevokeResultImplD2Ev
libxml-security-c.so.17:_ZN20XKMSStatusResultImpl14getMessageTypeEv
libxml-security-c.so.17:_ZN20XKMSStatusResultImpl15setFailureCountEi
libxml-security-c.so.17:_ZN20XKMSStatusResultImpl15setPendingCountEi
libxml-security-c.so.17:_ZN20XKMSStatusResultImpl15setSuccessCountEi
libxml-security-c.so.17:_ZN20XKMSStatusResultImpl23createBlankStatusResultEPKtS1_N14XKMSResultType11ResultMajorENS2_11ResultMinorE
libxml-security-c.so.17:_ZN20XKMSStatusResultImpl4loadEv
libxml-security-c.so.17:_ZN20XKMSStatusResultImplC1EPK7XSECEnv
libxml-security-c.so.17:_ZN20XKMSStatusResultImplC1EPK7XSECEnvPN11xercesc_3_110DOMElementE
libxml-security-c.so.17:_ZN20XKMSStatusResultImplC2EPK7XSECEnv
libxml-security-c.so.17:_ZN20XKMSStatusResultImplC2EPK7XSECEnvPN11xercesc_3_110DOMElementE
libxml-security-c.so.17:_ZN20XKMSStatusResultImplD0Ev
libxml-security-c.so.17:_ZN20XKMSStatusResultImplD1Ev
libxml-security-c.so.17:_ZN20XKMSStatusResultImplD2Ev
libxml-security-c.so.17:_ZN21DSIGKeyInfoDEREncoded21createBlankDEREncodedEPKt
libxml-security-c.so.17:_ZN21DSIGKeyInfoDEREncoded4loadEv
libxml-security-c.so.17:_ZN21DSIGKeyInfoDEREncoded7setDataEPKt
libxml-security-c.so.17:_ZN21DSIGKeyInfoDEREncodedC1EPK7XSECEnv
libxml-security-c.so.17:_ZN21DSIGKeyInfoDEREncodedC1EPK7XSECEnvPN11xercesc_3_17DOMNodeE
libxml-security-c.so.17:_ZN21DSIGKeyInfoDEREncodedC2EPK7XSECEnv
libxml-security-c.so.17:_ZN21DSIGKeyInfoDEREncodedC2EPK7XSECEnvPN11xercesc_3_17DOMNodeE
libxml-security-c.so.17:_ZN21DSIGKeyInfoDEREncodedD0Ev
libxml-security-c.so.17:_ZN21DSIGKeyInfoDEREncodedD1Ev
libxml-security-c.so.17:_ZN21DSIGKeyInfoDEREncodedD2Ev
libxml-security-c.so.17:_ZN21DSIGTransformEnvelope16getTransformTypeEv
libxml-security-c.so.17:_ZN21DSIGTransformEnvelope17appendTransformerEP9TXFMChain
libxml-security-c.so.17:_ZN21DSIGTransformEnvelope20createBlankTransformEPN11xercesc_3_111DOMDocumentE
libxml-security-c.so.17:_ZN21DSIGTransformEnvelope4loadEv
libxml-security-c.so.17:_ZN21DSIGTransformEnvelopeC1EPK7XSECEnv
libxml-security-c.so.17:_ZN21DSIGTransformEnvelopeC1EPK7XSECEnvPN11xercesc_3_17DOMNodeE
libxml-security-c.so.17:_ZN21DSIGTransformEnvelopeC2EPK7XSECEnv
libxml-security-c.so.17:_ZN21DSIGTransformEnvelopeC2EPK7XSECEnvPN11xercesc_3_17DOMNodeE
libxml-security-c.so.17:_ZN21DSIGTransformEnvelopeD0Ev
libxml-security-c.so.17:_ZN21DSIGTransformEnvelopeD1Ev
libxml-security-c.so.17:_ZN21DSIGTransformEnvelopeD2Ev
libxml-security-c.so.17:_ZN21OpenSSLCryptoHashHMAC4hashEPhj
libxml-security-c.so.17:_ZN21OpenSSLCryptoHashHMAC5resetEv
libxml-security-c.so.17:_ZN21OpenSSLCryptoHashHMAC6finishEPhj
libxml-security-c.so.17:_ZN21OpenSSLCryptoHashHMAC6setKeyEP13XSECCryptoKey
libxml-security-c.so.17:_ZN21OpenSSLCryptoHashHMACC1EN14XSECCryptoHash8HashTypeE
libxml-security-c.so.17:_ZN21OpenSSLCryptoHashHMACC2EN14XSECCryptoHash8HashTypeE
libxml-security-c.so.17:_ZN21OpenSSLCryptoHashHMACD0Ev
libxml-security-c.so.17:_ZN21OpenSSLCryptoHashHMACD1Ev
libxml-security-c.so.17:_ZN21OpenSSLCryptoHashHMACD2Ev
libxml-security-c.so.17:_ZN21OpenSSLCryptoProviderC1Ev
libxml-security-c.so.17:_ZN21OpenSSLCryptoProviderC2Ev
libxml-security-c.so.17:_ZN21OpenSSLCryptoProviderD0Ev
libxml-security-c.so.17:_ZN21OpenSSLCryptoProviderD1Ev
libxml-security-c.so.17:_ZN21OpenSSLCryptoProviderD2Ev
libxml-security-c.so.17:_ZN21XENCEncryptedDataImpl24createBlankEncryptedDataEN14XENCCipherData18XENCCipherDataTypeEPKtS3_
libxml-security-c.so.17:_ZN21XENCEncryptedDataImpl4loadEv
libxml-security-c.so.17:_ZN21XENCEncryptedDataImplC1EPK7XSECEnv
libxml-security-c.so.17:_ZN21XENCEncryptedDataImplC1EPK7XSECEnvPN11xercesc_3_110DOMElementE
libxml-security-c.so.17:_ZN21XENCEncryptedDataImplC2EPK7XSECEnv
libxml-security-c.so.17:_ZN21XENCEncryptedDataImplC2EPK7XSECEnvPN11xercesc_3_110DOMElementE
libxml-security-c.so.17:_ZN21XENCEncryptedDataImplD0Ev
libxml-security-c.so.17:_ZN21XENCEncryptedDataImplD1Ev
libxml-security-c.so.17:_ZN21XENCEncryptedDataImplD2Ev
libxml-security-c.so.17:_ZN21XENCEncryptedTypeImpl11setEncodingEPKt
libxml-security-c.so.17:_ZN21XENCEncryptedTypeImpl11setMimeTypeEPKt
libxml-security-c.so.17:_ZN21XENCEncryptedTypeImpl12clearKeyInfoEv
libxml-security-c.so.17:_ZN21XENCEncryptedTypeImpl13appendKeyNameEPKtb
libxml-security-c.so.17:_ZN21XENCEncryptedTypeImpl14appendX509DataEv
libxml-security-c.so.17:_ZN21XENCEncryptedTypeImpl17appendDSAKeyValueEPKtS1_S1_S1_
libxml-security-c.so.17:_ZN21XENCEncryptedTypeImpl17appendRSAKeyValueEPKtS1_
libxml-security-c.so.17:_ZN21XENCEncryptedTypeImpl18appendEncryptedKeyEP16XENCEncryptedKey
libxml-security-c.so.17:_ZN21XENCEncryptedTypeImpl20createKeyInfoElementEv
libxml-security-c.so.17:_ZN21XENCEncryptedTypeImpl21createCipherTXFMChainEv
libxml-security-c.so.17:_ZN21XENCEncryptedTypeImpl24createBlankEncryptedTypeEPtN14XENCCipherData18XENCCipherDataTypeEPKtS4_
libxml-security-c.so.17:_ZN21XENCEncryptedTypeImpl4loadEv
libxml-security-c.so.17:_ZN21XENCEncryptedTypeImpl7setTypeEPKt
libxml-security-c.so.17:_ZN21XENCEncryptedTypeImplC1EPK7XSECEnv
libxml-security-c.so.17:_ZN21XENCEncryptedTypeImplC1EPK7XSECEnvPN11xercesc_3_110DOMElementE
libxml-security-c.so.17:_ZN21XENCEncryptedTypeImplC2EPK7XSECEnv
libxml-security-c.so.17:_ZN21XENCEncryptedTypeImplC2EPK7XSECEnvPN11xercesc_3_110DOMElementE
libxml-security-c.so.17:_ZN21XENCEncryptedTypeImplD0Ev
libxml-security-c.so.17:_ZN21XENCEncryptedTypeImplD1Ev
libxml-security-c.so.17:_ZN21XENCEncryptedTypeImplD2Ev
libxml-security-c.so.17:_ZN21XKMSLocateRequestImpl14getMessageTypeEv
libxml-security-c.so.17:_ZN21XKMSLocateRequestImpl18addQueryKeyBindingEv
libxml-security-c.so.17:_ZN21XKMSLocateRequestImpl18getQueryKeyBindingEv
libxml-security-c.so.17:_ZN21XKMSLocateRequestImpl24createBlankLocateRequestEPKtS1_
libxml-security-c.so.17:_ZN21XKMSLocateRequestImpl4loadEv
libxml-security-c.so.17:_ZN21XKMSLocateRequestImplC1EPK7XSECEnv
libxml-security-c.so.17:_ZN21XKMSLocateRequestImplC1EPK7XSECEnvPN11xercesc_3_110DOMElementE
libxml-security-c.so.17:_ZN21XKMSLocateRequestImplC2EPK7XSECEnv
libxml-security-c.so.17:_ZN21XKMSLocateRequestImplC2EPK7XSECEnvPN11xercesc_3_110DOMElementE
libxml-security-c.so.17:_ZN21XKMSLocateRequestImplD0Ev
libxml-security-c.so.17:_ZN21XKMSLocateRequestImplD1Ev
libxml-security-c.so.17:_ZN21XKMSLocateRequestImplD2Ev
libxml-security-c.so.17:_ZN21XKMSRecoverResultImpl13getRSAKeyPairEPKc
libxml-security-c.so.17:_ZN21XKMSRecoverResultImpl13setRSAKeyPairEPKcPtS2_S2_S2_S2_S2_S2_S2_16encryptionMethodPKt
libxml-security-c.so.17:_ZN21XKMSRecoverResultImpl14getMessageTypeEv
libxml-security-c.so.17:_ZN21XKMSRecoverResultImpl20appendKeyBindingItemEN10XKMSStatus11StatusValueE
libxml-security-c.so.17:_ZN21XKMSRecoverResultImpl24createBlankRecoverResultEPKtS1_N14XKMSResultType11ResultMajorENS2_11ResultMinorE
libxml-security-c.so.17:_ZN21XKMSRecoverResultImpl4loadEv
libxml-security-c.so.17:_ZN21XKMSRecoverResultImplC1EPK7XSECEnv
libxml-security-c.so.17:_ZN21XKMSRecoverResultImplC1EPK7XSECEnvPN11xercesc_3_110DOMElementE
libxml-security-c.so.17:_ZN21XKMSRecoverResultImplC2EPK7XSECEnv
libxml-security-c.so.17:_ZN21XKMSRecoverResultImplC2EPK7XSECEnvPN11xercesc_3_110DOMElementE
libxml-security-c.so.17:_ZN21XKMSRecoverResultImplD0Ev
libxml-security-c.so.17:_ZN21XKMSRecoverResultImplD1Ev
libxml-security-c.so.17:_ZN21XKMSRecoverResultImplD2Ev
libxml-security-c.so.17:_ZN21XKMSReissueResultImpl14getMessageTypeEv
libxml-security-c.so.17:_ZN21XKMSReissueResultImpl20appendKeyBindingItemEN10XKMSStatus11StatusValueE
libxml-security-c.so.17:_ZN21XKMSReissueResultImpl24createBlankReissueResultEPKtS1_N14XKMSResultType11ResultMajorENS2_11ResultMinorE
libxml-security-c.so.17:_ZN21XKMSReissueResultImpl4loadEv
libxml-security-c.so.17:_ZN21XKMSReissueResultImplC1EPK7XSECEnv
libxml-security-c.so.17:_ZN21XKMSReissueResultImplC1EPK7XSECEnvPN11xercesc_3_110DOMElementE
libxml-security-c.so.17:_ZN21XKMSReissueResultImplC2EPK7XSECEnv
libxml-security-c.so.17:_ZN21XKMSReissueResultImplC2EPK7XSECEnvPN11xercesc_3_110DOMElementE
libxml-security-c.so.17:_ZN21XKMSReissueResultImplD0Ev
libxml-security-c.so.17:_ZN21XKMSReissueResultImplD1Ev
libxml-security-c.so.17:_ZN21XKMSReissueResultImplD2Ev
libxml-security-c.so.17:_ZN21XKMSRevokeRequestImpl14getMessageTypeEv
libxml-security-c.so.17:_ZN21XKMSRevokeRequestImpl17addAuthenticationEv
libxml-security-c.so.17:_ZN21XKMSRevokeRequestImpl17addRevocationCodeEPKt
libxml-security-c.so.17:_ZN21XKMSRevokeRequestImpl19addRevokeKeyBindingEN10XKMSStatus11StatusValueE
libxml-security-c.so.17:_ZN21XKMSRevokeRequestImpl24createBlankRevokeRequestEPKtS1_
libxml-security-c.so.17:_ZN21XKMSRevokeRequestImpl4loadEv
libxml-security-c.so.17:_ZN21XKMSRevokeRequestImplC1EPK7XSECEnv
libxml-security-c.so.17:_ZN21XKMSRevokeRequestImplC1EPK7XSECEnvPN11xercesc_3_110DOMElementE
libxml-security-c.so.17:_ZN21XKMSRevokeRequestImplC2EPK7XSECEnv
libxml-security-c.so.17:_ZN21XKMSRevokeRequestImplC2EPK7XSECEnvPN11xercesc_3_110DOMElementE
libxml-security-c.so.17:_ZN21XKMSRevokeRequestImplD0Ev
libxml-security-c.so.17:_ZN21XKMSRevokeRequestImplD1Ev
libxml-security-c.so.17:_ZN21XKMSRevokeRequestImplD2Ev
libxml-security-c.so.17:_ZN21XKMSStatusRequestImpl13setResponseIdEPKt
libxml-security-c.so.17:_ZN21XKMSStatusRequestImpl14getMessageTypeEv
libxml-security-c.so.17:_ZN21XKMSStatusRequestImpl24createBlankStatusRequestEPKtS1_
libxml-security-c.so.17:_ZN21XKMSStatusRequestImpl4loadEv
libxml-security-c.so.17:_ZN21XKMSStatusRequestImplC1EPK7XSECEnv
libxml-security-c.so.17:_ZN21XKMSStatusRequestImplC1EPK7XSECEnvPN11xercesc_3_110DOMElementE
libxml-security-c.so.17:_ZN21XKMSStatusRequestImplC2EPK7XSECEnv
libxml-security-c.so.17:_ZN21XKMSStatusRequestImplC2EPK7XSECEnvPN11xercesc_3_110DOMElementE
libxml-security-c.so.17:_ZN21XKMSStatusRequestImplD0Ev
libxml-security-c.so.17:_ZN21XKMSStatusRequestImplD1Ev
libxml-security-c.so.17:_ZN21XKMSStatusRequestImplD2Ev
libxml-security-c.so.17:_ZN21XSECNameSpaceExpander12nodeWasAddedEPN11xercesc_3_17DOMNodeE
libxml-security-c.so.17:_ZN21XSECNameSpaceExpander16expandNameSpacesEv
libxml-security-c.so.17:_ZN21XSECNameSpaceExpander21deleteAddedNamespacesEv
libxml-security-c.so.17:_ZN21XSECNameSpaceExpander7recurseEPN11xercesc_3_110DOMElementE
libxml-security-c.so.17:_ZN21XSECNameSpaceExpanderC1EPN11xercesc_3_110DOMElementE
libxml-security-c.so.17:_ZN21XSECNameSpaceExpanderC1EPN11xercesc_3_111DOMDocumentE
libxml-security-c.so.17:_ZN21XSECNameSpaceExpanderC2EPN11xercesc_3_110DOMElementE
libxml-security-c.so.17:_ZN21XSECNameSpaceExpanderC2EPN11xercesc_3_111DOMDocumentE
libxml-security-c.so.17:_ZN21XSECNameSpaceExpanderD1Ev
libxml-security-c.so.17:_ZN21XSECNameSpaceExpanderD2Ev
libxml-security-c.so.17:_ZN21XSECURIResolverXerces10resolveURIEPKt
libxml-security-c.so.17:_ZN21XSECURIResolverXerces10setBaseURIEPKt
libxml-security-c.so.17:_ZN21XSECURIResolverXerces5cloneEv
libxml-security-c.so.17:_ZN21XSECURIResolverXercesC1EPKt
libxml-security-c.so.17:_ZN21XSECURIResolverXercesC2EPKt
libxml-security-c.so.17:_ZN21XSECURIResolverXercesD0Ev
libxml-security-c.so.17:_ZN21XSECURIResolverXercesD1Ev
libxml-security-c.so.17:_ZN21XSECURIResolverXercesD2Ev
libxml-security-c.so.17:_ZN22XKMSAuthenticationImpl25createBlankAuthenticationEPKt
libxml-security-c.so.17:_ZN22XKMSAuthenticationImpl25setNotBoundAuthenticationEPKtS1_
libxml-security-c.so.17:_ZN22XKMSAuthenticationImpl36addKeyBindingAuthenticationSignatureE22canonicalizationMethod15signatureMethod10hashMethod
libxml-security-c.so.17:_ZN22XKMSAuthenticationImpl4loadEPKt
libxml-security-c.so.17:_ZN22XKMSAuthenticationImplC1EPK7XSECEnv
libxml-security-c.so.17:_ZN22XKMSAuthenticationImplC1EPK7XSECEnvPN11xercesc_3_110DOMElementE
libxml-security-c.so.17:_ZN22XKMSAuthenticationImplC2EPK7XSECEnv
libxml-security-c.so.17:_ZN22XKMSAuthenticationImplC2EPK7XSECEnvPN11xercesc_3_110DOMElementE
libxml-security-c.so.17:_ZN22XKMSAuthenticationImplD0Ev
libxml-security-c.so.17:_ZN22XKMSAuthenticationImplD1Ev
libxml-security-c.so.17:_ZN22XKMSAuthenticationImplD2Ev
libxml-security-c.so.17:_ZN22XKMSCompoundResultImpl12createResultEP23XKMSRequestAbstractTypeN14XKMSResultType11ResultMajorENS2_11ResultMinorEPKt
libxml-security-c.so.17:_ZN22XKMSCompoundResultImpl14getMessageTypeEv
libxml-security-c.so.17:_ZN22XKMSCompoundResultImpl17getResultListItemEi
libxml-security-c.so.17:_ZN22XKMSCompoundResultImpl17getResultListSizeEv
libxml-security-c.so.17:_ZN22XKMSCompoundResultImpl18createLocateResultEP17XKMSLocateRequestN14XKMSResultType11ResultMajorENS2_11ResultMinorEPKt
libxml-security-c.so.17:_ZN22XKMSCompoundResultImpl18createRevokeResultEP17XKMSRevokeRequestN14XKMSResultType11ResultMajorENS2_11ResultMinorEPKt
libxml-security-c.so.17:_ZN22XKMSCompoundResultImpl18createStatusResultEP17XKMSStatusRequestN14XKMSResultType11ResultMajorENS2_11ResultMinorEPKt
libxml-security-c.so.17:_ZN22XKMSCompoundResultImpl19createRecoverResultEP18XKMSRecoverRequestN14XKMSResultType11ResultMajorENS2_11ResultMinorEPKt
libxml-security-c.so.17:_ZN22XKMSCompoundResultImpl19createReissueResultEP18XKMSReissueRequestN14XKMSResultType11ResultMajorENS2_11ResultMinorEPKt
libxml-security-c.so.17:_ZN22XKMSCompoundResultImpl20createRegisterResultEP19XKMSRegisterRequestN14XKMSResultType11ResultMajorENS2_11ResultMinorEPKt
libxml-security-c.so.17:_ZN22XKMSCompoundResultImpl20createValidateResultEP19XKMSValidateRequestN14XKMSResultType11ResultMajorENS2_11ResultMinorEPKt
libxml-security-c.so.17:_ZN22XKMSCompoundResultImpl25createBlankCompoundResultEPKtS1_N14XKMSResultType11ResultMajorENS2_11ResultMinorE
libxml-security-c.so.17:_ZN22XKMSCompoundResultImpl4loadEv
libxml-security-c.so.17:_ZN22XKMSCompoundResultImplC1EPK7XSECEnv
libxml-security-c.so.17:_ZN22XKMSCompoundResultImplC1EPK7XSECEnvPN11xercesc_3_110DOMElementE
libxml-security-c.so.17:_ZN22XKMSCompoundResultImplC2EPK7XSECEnv
libxml-security-c.so.17:_ZN22XKMSCompoundResultImplC2EPK7XSECEnvPN11xercesc_3_110DOMElementE
libxml-security-c.so.17:_ZN22XKMSCompoundResultImplD0Ev
libxml-security-c.so.17:_ZN22XKMSCompoundResultImplD1Ev
libxml-security-c.so.17:_ZN22XKMSCompoundResultImplD2Ev
libxml-security-c.so.17:_ZN22XKMSMessageFactoryImpl12createResultEP23XKMSRequestAbstractTypePN11xercesc_3_111DOMDocumentEN14XKMSResultType11ResultMajorENS5_11ResultMinorEPKt
libxml-security-c.so.17:_ZN22XKMSMessageFactoryImpl12createResultEP23XKMSRequestAbstractTypePPN11xercesc_3_111DOMDocumentEN14XKMSResultType11ResultMajorENS6_11ResultMinorEPKt
libxml-security-c.so.17:_ZN22XKMSMessageFactoryImpl12toResultTypeEP23XKMSMessageAbstractType
libxml-security-c.so.17:_ZN22XKMSMessageFactoryImpl13setECNSPrefixEPKt
libxml-security-c.so.17:_ZN22XKMSMessageFactoryImpl14setXPFNSPrefixEPKt
libxml-security-c.so.17:_ZN22XKMSMessageFactoryImpl15setDSIGNSPrefixEPKt
libxml-security-c.so.17:_ZN22XKMSMessageFactoryImpl15setXENCNSPrefixEPKt
libxml-security-c.so.17:_ZN22XKMSMessageFactoryImpl15setXKMSNSPrefixEPKt
libxml-security-c.so.17:_ZN22XKMSMessageFactoryImpl17newMessageFromDOMEPN11xercesc_3_110DOMElementE
libxml-security-c.so.17:_ZN22XKMSMessageFactoryImpl18createLocateResultEP17XKMSLocateRequestPN11xercesc_3_111DOMDocumentEN14XKMSResultType11ResultMajorENS5_11ResultMinorEPKt
libxml-security-c.so.17:_ZN22XKMSMessageFactoryImpl18createLocateResultEP17XKMSLocateRequestPPN11xercesc_3_111DOMDocumentEN14XKMSResultType11ResultMajorENS6_11ResultMinorEPKt
libxml-security-c.so.17:_ZN22XKMSMessageFactoryImpl18createRevokeResultEP17XKMSRevokeRequestPN11xercesc_3_111DOMDocumentEN14XKMSResultType11ResultMajorENS5_11ResultMinorEPKt
libxml-security-c.so.17:_ZN22XKMSMessageFactoryImpl18createRevokeResultEP17XKMSRevokeRequestPPN11xercesc_3_111DOMDocumentEN14XKMSResultType11ResultMajorENS6_11ResultMinorEPKt
libxml-security-c.so.17:_ZN22XKMSMessageFactoryImpl18createStatusResultEP17XKMSStatusRequestPN11xercesc_3_111DOMDocumentEN14XKMSResultType11ResultMajorENS5_11ResultMinorEPKt
libxml-security-c.so.17:_ZN22XKMSMessageFactoryImpl18createStatusResultEP17XKMSStatusRequestPPN11xercesc_3_111DOMDocumentEN14XKMSResultType11ResultMajorENS6_11ResultMinorEPKt
libxml-security-c.so.17:_ZN22XKMSMessageFactoryImpl19copyRequestToResultEP23XKMSRequestAbstractTypeP14XKMSResultType
libxml-security-c.so.17:_ZN22XKMSMessageFactoryImpl19createLocateRequestEPKtPN11xercesc_3_111DOMDocumentES1_
libxml-security-c.so.17:_ZN22XKMSMessageFactoryImpl19createLocateRequestEPKtPPN11xercesc_3_111DOMDocumentES1_
libxml-security-c.so.17:_ZN22XKMSMessageFactoryImpl19createRecoverResultEP18XKMSRecoverRequestPN11xercesc_3_111DOMDocumentEN14XKMSResultType11ResultMajorENS5_11ResultMinorEPKt
libxml-security-c.so.17:_ZN22XKMSMessageFactoryImpl19createRecoverResultEP18XKMSRecoverRequestPPN11xercesc_3_111DOMDocumentEN14XKMSResultType11ResultMajorENS6_11ResultMinorEPKt
libxml-security-c.so.17:_ZN22XKMSMessageFactoryImpl19createReissueResultEP18XKMSReissueRequestPN11xercesc_3_111DOMDocumentEN14XKMSResultType11ResultMajorENS5_11ResultMinorEPKt
libxml-security-c.so.17:_ZN22XKMSMessageFactoryImpl19createReissueResultEP18XKMSReissueRequestPPN11xercesc_3_111DOMDocumentEN14XKMSResultType11ResultMajorENS6_11ResultMinorEPKt
libxml-security-c.so.17:_ZN22XKMSMessageFactoryImpl19createRevokeRequestEPKtPN11xercesc_3_111DOMDocumentES1_
libxml-security-c.so.17:_ZN22XKMSMessageFactoryImpl19createRevokeRequestEPKtPPN11xercesc_3_111DOMDocumentES1_
libxml-security-c.so.17:_ZN22XKMSMessageFactoryImpl19createStatusRequestEPKtPN11xercesc_3_111DOMDocumentES1_
libxml-security-c.so.17:_ZN22XKMSMessageFactoryImpl19createStatusRequestEPKtPPN11xercesc_3_111DOMDocumentES1_
libxml-security-c.so.17:_ZN22XKMSMessageFactoryImpl20createCompoundResultEP19XKMSCompoundRequestPN11xercesc_3_111DOMDocumentEN14XKMSResultType11ResultMajorENS5_11ResultMinorEPKt
libxml-security-c.so.17:_ZN22XKMSMessageFactoryImpl20createCompoundResultEP19XKMSCompoundRequestPPN11xercesc_3_111DOMDocumentEN14XKMSResultType11ResultMajorENS6_11ResultMinorEPKt
libxml-security-c.so.17:_ZN22XKMSMessageFactoryImpl20createPendingRequestEPKtPN11xercesc_3_111DOMDocumentES1_
libxml-security-c.so.17:_ZN22XKMSMessageFactoryImpl20createPendingRequestEPKtPPN11xercesc_3_111DOMDocumentES1_
libxml-security-c.so.17:_ZN22XKMSMessageFactoryImpl20createRecoverRequestEPKtPN11xercesc_3_111DOMDocumentES1_
libxml-security-c.so.17:_ZN22XKMSMessageFactoryImpl20createRecoverRequestEPKtPPN11xercesc_3_111DOMDocumentES1_
libxml-security-c.so.17:_ZN22XKMSMessageFactoryImpl20createRegisterResultEP19XKMSRegisterRequestPN11xercesc_3_111DOMDocumentEN14XKMSResultType11ResultMajorENS5_11ResultMinorEPKt
libxml-security-c.so.17:_ZN22XKMSMessageFactoryImpl20createRegisterResultEP19XKMSRegisterRequestPPN11xercesc_3_111DOMDocumentEN14XKMSResultType11ResultMajorENS6_11ResultMinorEPKt
libxml-security-c.so.17:_ZN22XKMSMessageFactoryImpl20createReissueRequestEPKtPN11xercesc_3_111DOMDocumentES1_
libxml-security-c.so.17:_ZN22XKMSMessageFactoryImpl20createReissueRequestEPKtPPN11xercesc_3_111DOMDocumentES1_
libxml-security-c.so.17:_ZN22XKMSMessageFactoryImpl20createValidateResultEP19XKMSValidateRequestPN11xercesc_3_111DOMDocumentEN14XKMSResultType11ResultMajorENS5_11ResultMinorEPKt
libxml-security-c.so.17:_ZN22XKMSMessageFactoryImpl20createValidateResultEP19XKMSValidateRequestPPN11xercesc_3_111DOMDocumentEN14XKMSResultType11ResultMajorENS6_11ResultMinorEPKt
libxml-security-c.so.17:_ZN22XKMSMessageFactoryImpl21createCompoundRequestEPKtPN11xercesc_3_111DOMDocumentES1_
libxml-security-c.so.17:_ZN22XKMSMessageFactoryImpl21createCompoundRequestEPKtPPN11xercesc_3_111DOMDocumentES1_
libxml-security-c.so.17:_ZN22XKMSMessageFactoryImpl21createRegisterRequestEPKtPN11xercesc_3_111DOMDocumentES1_
libxml-security-c.so.17:_ZN22XKMSMessageFactoryImpl21createRegisterRequestEPKtPPN11xercesc_3_111DOMDocumentES1_
libxml-security-c.so.17:_ZN22XKMSMessageFactoryImpl21createValidateRequestEPKtPN11xercesc_3_111DOMDocumentES1_
libxml-security-c.so.17:_ZN22XKMSMessageFactoryImpl21createValidateRequestEPKtPPN11xercesc_3_111DOMDocumentES1_
libxml-security-c.so.17:_ZN22XKMSMessageFactoryImpl21toRequestAbstractTypeEP23XKMSMessageAbstractType
libxml-security-c.so.17:_ZN22XKMSMessageFactoryImplC1Ev
libxml-security-c.so.17:_ZN22XKMSMessageFactoryImplC2Ev
libxml-security-c.so.17:_ZN22XKMSMessageFactoryImplD0Ev
libxml-security-c.so.17:_ZN22XKMSMessageFactoryImplD1Ev
libxml-security-c.so.17:_ZN22XKMSMessageFactoryImplD2Ev
libxml-security-c.so.17:_ZN22XKMSPendingRequestImpl13setResponseIdEPKt
libxml-security-c.so.17:_ZN22XKMSPendingRequestImpl14getMessageTypeEv
libxml-security-c.so.17:_ZN22XKMSPendingRequestImpl25createBlankPendingRequestEPKtS1_
libxml-security-c.so.17:_ZN22XKMSPendingRequestImpl4loadEv
libxml-security-c.so.17:_ZN22XKMSPendingRequestImplC1EPK7XSECEnv
libxml-security-c.so.17:_ZN22XKMSPendingRequestImplC1EPK7XSECEnvPN11xercesc_3_110DOMElementE
libxml-security-c.so.17:_ZN22XKMSPendingRequestImplC2EPK7XSECEnv
libxml-security-c.so.17:_ZN22XKMSPendingRequestImplC2EPK7XSECEnvPN11xercesc_3_110DOMElementE
libxml-security-c.so.17:_ZN22XKMSPendingRequestImplD0Ev
libxml-security-c.so.17:_ZN22XKMSPendingRequestImplD1Ev
libxml-security-c.so.17:_ZN22XKMSPendingRequestImplD2Ev
libxml-security-c.so.17:_ZN22XKMSRecoverRequestImpl14getMessageTypeEv
libxml-security-c.so.17:_ZN22XKMSRecoverRequestImpl17addAuthenticationEv
libxml-security-c.so.17:_ZN22XKMSRecoverRequestImpl20addRecoverKeyBindingEN10XKMSStatus11StatusValueE
libxml-security-c.so.17:_ZN22XKMSRecoverRequestImpl25createBlankRecoverRequestEPKtS1_
libxml-security-c.so.17:_ZN22XKMSRecoverRequestImpl4loadEv
libxml-security-c.so.17:_ZN22XKMSRecoverRequestImplC1EPK7XSECEnv
libxml-security-c.so.17:_ZN22XKMSRecoverRequestImplC1EPK7XSECEnvPN11xercesc_3_110DOMElementE
libxml-security-c.so.17:_ZN22XKMSRecoverRequestImplC2EPK7XSECEnv
libxml-security-c.so.17:_ZN22XKMSRecoverRequestImplC2EPK7XSECEnvPN11xercesc_3_110DOMElementE
libxml-security-c.so.17:_ZN22XKMSRecoverRequestImplD0Ev
libxml-security-c.so.17:_ZN22XKMSRecoverRequestImplD1Ev
libxml-security-c.so.17:_ZN22XKMSRecoverRequestImplD2Ev
libxml-security-c.so.17:_ZN22XKMSRegisterResultImpl13getRSAKeyPairEPKc
libxml-security-c.so.17:_ZN22XKMSRegisterResultImpl13setRSAKeyPairEPKcPtS2_S2_S2_S2_S2_S2_S2_16encryptionMethodPKt
libxml-security-c.so.17:_ZN22XKMSRegisterResultImpl14getMessageTypeEv
libxml-security-c.so.17:_ZN22XKMSRegisterResultImpl20appendKeyBindingItemEN10XKMSStatus11StatusValueE
libxml-security-c.so.17:_ZN22XKMSRegisterResultImpl25createBlankRegisterResultEPKtS1_N14XKMSResultType11ResultMajorENS2_11ResultMinorE
libxml-security-c.so.17:_ZN22XKMSRegisterResultImpl4loadEv
libxml-security-c.so.17:_ZN22XKMSRegisterResultImplC1EPK7XSECEnv
libxml-security-c.so.17:_ZN22XKMSRegisterResultImplC1EPK7XSECEnvPN11xercesc_3_110DOMElementE
libxml-security-c.so.17:_ZN22XKMSRegisterResultImplC2EPK7XSECEnv
libxml-security-c.so.17:_ZN22XKMSRegisterResultImplC2EPK7XSECEnvPN11xercesc_3_110DOMElementE
libxml-security-c.so.17:_ZN22XKMSRegisterResultImplD0Ev
libxml-security-c.so.17:_ZN22XKMSRegisterResultImplD1Ev
libxml-security-c.so.17:_ZN22XKMSRegisterResultImplD2Ev
libxml-security-c.so.17:_ZN22XKMSReissueRequestImpl14getMessageTypeEv
libxml-security-c.so.17:_ZN22XKMSReissueRequestImpl17addAuthenticationEv
libxml-security-c.so.17:_ZN22XKMSReissueRequestImpl20addReissueKeyBindingEN10XKMSStatus11StatusValueE
libxml-security-c.so.17:_ZN22XKMSReissueRequestImpl25createBlankReissueRequestEPKtS1_
libxml-security-c.so.17:_ZN22XKMSReissueRequestImpl29addProofOfPossessionSignatureE22canonicalizationMethod15signatureMethod10hashMethod
libxml-security-c.so.17:_ZN22XKMSReissueRequestImpl4loadEv
libxml-security-c.so.17:_ZN22XKMSReissueRequestImplC1EPK7XSECEnv
libxml-security-c.so.17:_ZN22XKMSReissueRequestImplC1EPK7XSECEnvPN11xercesc_3_110DOMElementE
libxml-security-c.so.17:_ZN22XKMSReissueRequestImplC2EPK7XSECEnv
libxml-security-c.so.17:_ZN22XKMSReissueRequestImplC2EPK7XSECEnvPN11xercesc_3_110DOMElementE
libxml-security-c.so.17:_ZN22XKMSReissueRequestImplD0Ev
libxml-security-c.so.17:_ZN22XKMSReissueRequestImplD1Ev
libxml-security-c.so.17:_ZN22XKMSReissueRequestImplD2Ev
libxml-security-c.so.17:_ZN22XKMSValidateResultImpl14getMessageTypeEv
libxml-security-c.so.17:_ZN22XKMSValidateResultImpl20appendKeyBindingItemEN10XKMSStatus11StatusValueE
libxml-security-c.so.17:_ZN22XKMSValidateResultImpl25createBlankValidateResultEPKtS1_N14XKMSResultType11ResultMajorENS2_11ResultMinorE
libxml-security-c.so.17:_ZN22XKMSValidateResultImpl4loadEv
libxml-security-c.so.17:_ZN22XKMSValidateResultImplC1EPK7XSECEnv
libxml-security-c.so.17:_ZN22XKMSValidateResultImplC1EPK7XSECEnvPN11xercesc_3_110DOMElementE
libxml-security-c.so.17:_ZN22XKMSValidateResultImplC2EPK7XSECEnv
libxml-security-c.so.17:_ZN22XKMSValidateResultImplC2EPK7XSECEnvPN11xercesc_3_110DOMElementE
libxml-security-c.so.17:_ZN22XKMSValidateResultImplD0Ev
libxml-security-c.so.17:_ZN22XKMSValidateResultImplD1Ev
libxml-security-c.so.17:_ZN22XKMSValidateResultImplD2Ev
libxml-security-c.so.17:_ZN22XSECBinTXFMInputStream5resetEv
libxml-security-c.so.17:_ZN22XSECBinTXFMInputStream9readBytesEPhm
libxml-security-c.so.17:_ZN22XSECBinTXFMInputStreamC1EP9TXFMChainb
libxml-security-c.so.17:_ZN22XSECBinTXFMInputStreamC2EP9TXFMChainb
libxml-security-c.so.17:_ZN22XSECBinTXFMInputStreamD0Ev
libxml-security-c.so.17:_ZN22XSECBinTXFMInputStreamD1Ev
libxml-security-c.so.17:_ZN22XSECBinTXFMInputStreamD2Ev
libxml-security-c.so.17:_ZN23XENCCipherReferenceImpl12addTransformEP13DSIGTransformPN11xercesc_3_110DOMElementE
libxml-security-c.so.17:_ZN23XENCCipherReferenceImpl18appendXSLTransformEPN11xercesc_3_17DOMNodeE
libxml-security-c.so.17:_ZN23XENCCipherReferenceImpl19createTransformListEv
libxml-security-c.so.17:_ZN23XENCCipherReferenceImpl20appendXPathTransformEPKc
libxml-security-c.so.17:_ZN23XENCCipherReferenceImpl21appendBase64TransformEv
libxml-security-c.so.17:_ZN23XENCCipherReferenceImpl26appendXPathFilterTransformEv
libxml-security-c.so.17:_ZN23XENCCipherReferenceImpl26createBlankCipherReferenceEPKt
libxml-security-c.so.17:_ZN23XENCCipherReferenceImpl31appendCanonicalizationTransformE22canonicalizationMethod
libxml-security-c.so.17:_ZN23XENCCipherReferenceImpl4loadEv
libxml-security-c.so.17:_ZN23XENCCipherReferenceImplC1EPK7XSECEnv
libxml-security-c.so.17:_ZN23XENCCipherReferenceImplC1EPK7XSECEnvPN11xercesc_3_110DOMElementE
libxml-security-c.so.17:_ZN23XENCCipherReferenceImplC2EPK7XSECEnv
libxml-security-c.so.17:_ZN23XENCCipherReferenceImplC2EPK7XSECEnvPN11xercesc_3_110DOMElementE
libxml-security-c.so.17:_ZN23XENCCipherReferenceImplD0Ev
libxml-security-c.so.17:_ZN23XENCCipherReferenceImplD1Ev
libxml-security-c.so.17:_ZN23XENCCipherReferenceImplD2Ev
libxml-security-c.so.17:_ZN23XKMSCompoundRequestImpl14getMessageTypeEv
libxml-security-c.so.17:_ZN23XKMSCompoundRequestImpl18getRequestListItemEi
libxml-security-c.so.17:_ZN23XKMSCompoundRequestImpl18getRequestListSizeEv
libxml-security-c.so.17:_ZN23XKMSCompoundRequestImpl19createLocateRequestEPKtS1_
libxml-security-c.so.17:_ZN23XKMSCompoundRequestImpl19createRevokeRequestEPKtS1_
libxml-security-c.so.17:_ZN23XKMSCompoundRequestImpl20createRecoverRequestEPKtS1_
libxml-security-c.so.17:_ZN23XKMSCompoundRequestImpl20createReissueRequestEPKtS1_
libxml-security-c.so.17:_ZN23XKMSCompoundRequestImpl21createRegisterRequestEPKtS1_
libxml-security-c.so.17:_ZN23XKMSCompoundRequestImpl21createValidateRequestEPKtS1_
libxml-security-c.so.17:_ZN23XKMSCompoundRequestImpl26createBlankCompoundRequestEPKtS1_
libxml-security-c.so.17:_ZN23XKMSCompoundRequestImpl4loadEv
libxml-security-c.so.17:_ZN23XKMSCompoundRequestImplC1EPK7XSECEnv
libxml-security-c.so.17:_ZN23XKMSCompoundRequestImplC1EPK7XSECEnvPN11xercesc_3_110DOMElementE
libxml-security-c.so.17:_ZN23XKMSCompoundRequestImplC2EPK7XSECEnv
libxml-security-c.so.17:_ZN23XKMSCompoundRequestImplC2EPK7XSECEnvPN11xercesc_3_110DOMElementE
libxml-security-c.so.17:_ZN23XKMSCompoundRequestImplD0Ev
libxml-security-c.so.17:_ZN23XKMSCompoundRequestImplD1Ev
libxml-security-c.so.17:_ZN23XKMSCompoundRequestImplD2Ev
libxml-security-c.so.17:_ZN23XKMSQueryKeyBindingImpl26createBlankQueryKeyBindingEv
libxml-security-c.so.17:_ZN23XKMSQueryKeyBindingImpl4loadEv
libxml-security-c.so.17:_ZN23XKMSQueryKeyBindingImplC1EPK7XSECEnv
libxml-security-c.so.17:_ZN23XKMSQueryKeyBindingImplC1EPK7XSECEnvPN11xercesc_3_110DOMElementE
libxml-security-c.so.17:_ZN23XKMSQueryKeyBindingImplC2EPK7XSECEnv
libxml-security-c.so.17:_ZN23XKMSQueryKeyBindingImplC2EPK7XSECEnvPN11xercesc_3_110DOMElementE
libxml-security-c.so.17:_ZN23XKMSQueryKeyBindingImplD0Ev
libxml-security-c.so.17:_ZN23XKMSQueryKeyBindingImplD1Ev
libxml-security-c.so.17:_ZN23XKMSQueryKeyBindingImplD2Ev
libxml-security-c.so.17:_ZN23XKMSRegisterRequestImpl14getMessageTypeEv
libxml-security-c.so.17:_ZN23XKMSRegisterRequestImpl17addAuthenticationEv
libxml-security-c.so.17:_ZN23XKMSRegisterRequestImpl22addPrototypeKeyBindingEv
libxml-security-c.so.17:_ZN23XKMSRegisterRequestImpl26createBlankRegisterRequestEPKtS1_
libxml-security-c.so.17:_ZN23XKMSRegisterRequestImpl29addProofOfPossessionSignatureE22canonicalizationMethod15signatureMethod10hashMethod
libxml-security-c.so.17:_ZN23XKMSRegisterRequestImpl4loadEv
libxml-security-c.so.17:_ZN23XKMSRegisterRequestImplC1EPK7XSECEnv
libxml-security-c.so.17:_ZN23XKMSRegisterRequestImplC1EPK7XSECEnvPN11xercesc_3_110DOMElementE
libxml-security-c.so.17:_ZN23XKMSRegisterRequestImplC2EPK7XSECEnv
libxml-security-c.so.17:_ZN23XKMSRegisterRequestImplC2EPK7XSECEnvPN11xercesc_3_110DOMElementE
libxml-security-c.so.17:_ZN23XKMSRegisterRequestImplD0Ev
libxml-security-c.so.17:_ZN23XKMSRegisterRequestImplD1Ev
libxml-security-c.so.17:_ZN23XKMSRegisterRequestImplD2Ev
libxml-security-c.so.17:_ZN23XKMSValidateRequestImpl14getMessageTypeEv
libxml-security-c.so.17:_ZN23XKMSValidateRequestImpl18addQueryKeyBindingEv
libxml-security-c.so.17:_ZN23XKMSValidateRequestImpl18getQueryKeyBindingEv
libxml-security-c.so.17:_ZN23XKMSValidateRequestImpl26createBlankValidateRequestEPKtS1_
libxml-security-c.so.17:_ZN23XKMSValidateRequestImpl4loadEv
libxml-security-c.so.17:_ZN23XKMSValidateRequestImplC1EPK7XSECEnv
libxml-security-c.so.17:_ZN23XKMSValidateRequestImplC1EPK7XSECEnvPN11xercesc_3_110DOMElementE
libxml-security-c.so.17:_ZN23XKMSValidateRequestImplC2EPK7XSECEnv
libxml-security-c.so.17:_ZN23XKMSValidateRequestImplC2EPK7XSECEnvPN11xercesc_3_110DOMElementE
libxml-security-c.so.17:_ZN23XKMSValidateRequestImplD0Ev
libxml-security-c.so.17:_ZN23XKMSValidateRequestImplD1Ev
libxml-security-c.so.17:_ZN23XKMSValidateRequestImplD2Ev
libxml-security-c.so.17:_ZN23XSECSOAPRequestorSimple14parseAndUnwrapEPKcj
libxml-security-c.so.17:_ZN23XSECSOAPRequestorSimple15setEnvelopeTypeENS_12envelopeTypeE
libxml-security-c.so.17:_ZN23XSECSOAPRequestorSimple16wrapAndSerialiseEPN11xercesc_3_111DOMDocumentE
libxml-security-c.so.17:_ZN23XSECSOAPRequestorSimple9doRequestEPN11xercesc_3_111DOMDocumentE
libxml-security-c.so.17:_ZN23XSECSOAPRequestorSimpleC1EPKt
libxml-security-c.so.17:_ZN23XSECSOAPRequestorSimpleC2EPKt
libxml-security-c.so.17:_ZN23XSECSOAPRequestorSimpleD0Ev
libxml-security-c.so.17:_ZN23XSECSOAPRequestorSimpleD1Ev
libxml-security-c.so.17:_ZN23XSECSOAPRequestorSimpleD2Ev
libxml-security-c.so.17:_ZN23XSECSafeBufferFormatter13setUnRepFlagsEN11xercesc_3_112XMLFormatter10UnRepFlagsE
libxml-security-c.so.17:_ZN23XSECSafeBufferFormatter14setEscapeFlagsEN11xercesc_3_112XMLFormatter11EscapeFlagsE
libxml-security-c.so.17:_ZN23XSECSafeBufferFormatter9formatBufEPKtmN11xercesc_3_112XMLFormatter11EscapeFlagsENS3_10UnRepFlagsE
libxml-security-c.so.17:_ZN23XSECSafeBufferFormatterC1EPKcN11xercesc_3_112XMLFormatter11EscapeFlagsENS3_10UnRepFlagsE
libxml-security-c.so.17:_ZN23XSECSafeBufferFormatterC1EPKtN11xercesc_3_112XMLFormatter11EscapeFlagsENS3_10UnRepFlagsE
libxml-security-c.so.17:_ZN23XSECSafeBufferFormatterC2EPKcN11xercesc_3_112XMLFormatter11EscapeFlagsENS3_10UnRepFlagsE
libxml-security-c.so.17:_ZN23XSECSafeBufferFormatterC2EPKtN11xercesc_3_112XMLFormatter11EscapeFlagsENS3_10UnRepFlagsE
libxml-security-c.so.17:_ZN23XSECSafeBufferFormatterD1Ev
libxml-security-c.so.17:_ZN23XSECSafeBufferFormatterD2Ev
libxml-security-c.so.17:_ZN23XSECSafeBufferFormatterlsEN11xercesc_3_112XMLFormatter10UnRepFlagsE
libxml-security-c.so.17:_ZN23XSECSafeBufferFormatterlsEN11xercesc_3_112XMLFormatter11EscapeFlagsE
libxml-security-c.so.17:_ZN23XSECSafeBufferFormatterlsEPKt
libxml-security-c.so.17:_ZN23XSECSafeBufferFormatterlsEt
libxml-security-c.so.17:_ZN24DSIGTransformXPathFilter10getExprNumEv
libxml-security-c.so.17:_ZN24DSIGTransformXPathFilter12appendFilterE15xpathFilterTypePKt
libxml-security-c.so.17:_ZN24DSIGTransformXPathFilter16getTransformTypeEv
libxml-security-c.so.17:_ZN24DSIGTransformXPathFilter17appendTransformerEP9TXFMChain
libxml-security-c.so.17:_ZN24DSIGTransformXPathFilter20createBlankTransformEPN11xercesc_3_111DOMDocumentE
libxml-security-c.so.17:_ZN24DSIGTransformXPathFilter4exprEj
libxml-security-c.so.17:_ZN24DSIGTransformXPathFilter4loadEv
libxml-security-c.so.17:_ZN24DSIGTransformXPathFilterC1EPK7XSECEnv
libxml-security-c.so.17:_ZN24DSIGTransformXPathFilterC1EPK7XSECEnvPN11xercesc_3_17DOMNodeE
libxml-security-c.so.17:_ZN24DSIGTransformXPathFilterC2EPK7XSECEnv
libxml-security-c.so.17:_ZN24DSIGTransformXPathFilterC2EPK7XSECEnvPN11xercesc_3_17DOMNodeE
libxml-security-c.so.17:_ZN24DSIGTransformXPathFilterD0Ev
libxml-security-c.so.17:_ZN24DSIGTransformXPathFilterD1Ev
libxml-security-c.so.17:_ZN24DSIGTransformXPathFilterD2Ev
libxml-security-c.so.17:_ZN24XENCEncryptionMethodImpl10setKeySizeEi
libxml-security-c.so.17:_ZN24XENCEncryptionMethodImpl13setOAEPparamsEPKt
libxml-security-c.so.17:_ZN24XENCEncryptionMethodImpl15setDigestMethodEPKt
libxml-security-c.so.17:_ZN24XENCEncryptionMethodImpl26createBlankEncryptedMethodEPKt
libxml-security-c.so.17:_ZN24XENCEncryptionMethodImpl4loadEv
libxml-security-c.so.17:_ZN24XENCEncryptionMethodImpl6setMGFEPKt
libxml-security-c.so.17:_ZN24XENCEncryptionMethodImplC1EPK7XSECEnv
libxml-security-c.so.17:_ZN24XENCEncryptionMethodImplC1EPK7XSECEnvPN11xercesc_3_110DOMElementE
libxml-security-c.so.17:_ZN24XENCEncryptionMethodImplC2EPK7XSECEnv
libxml-security-c.so.17:_ZN24XENCEncryptionMethodImplC2EPK7XSECEnvPN11xercesc_3_110DOMElementE
libxml-security-c.so.17:_ZN24XENCEncryptionMethodImplD0Ev
libxml-security-c.so.17:_ZN24XENCEncryptionMethodImplD1Ev
libxml-security-c.so.17:_ZN24XENCEncryptionMethodImplD2Ev
libxml-security-c.so.17:_ZN24XKMSRevokeKeyBindingImpl27createBlankRevokeKeyBindingEN10XKMSStatus11StatusValueE
libxml-security-c.so.17:_ZN24XKMSRevokeKeyBindingImpl4loadEv
libxml-security-c.so.17:_ZN24XKMSRevokeKeyBindingImplC1EPK7XSECEnv
libxml-security-c.so.17:_ZN24XKMSRevokeKeyBindingImplC1EPK7XSECEnvPN11xercesc_3_110DOMElementE
libxml-security-c.so.17:_ZN24XKMSRevokeKeyBindingImplC2EPK7XSECEnv
libxml-security-c.so.17:_ZN24XKMSRevokeKeyBindingImplC2EPK7XSECEnvPN11xercesc_3_110DOMElementE
libxml-security-c.so.17:_ZN24XKMSRevokeKeyBindingImplD0Ev
libxml-security-c.so.17:_ZN24XKMSRevokeKeyBindingImplD1Ev
libxml-security-c.so.17:_ZN24XKMSRevokeKeyBindingImplD2Ev
libxml-security-c.so.17:_ZN24XKMSValidityIntervalImpl12setNotBeforeEPKt
libxml-security-c.so.17:_ZN24XKMSValidityIntervalImpl15setNotOnOrAfterEPKt
libxml-security-c.so.17:_ZN24XKMSValidityIntervalImpl27createBlankValidityIntervalEPKtS1_
libxml-security-c.so.17:_ZN24XKMSValidityIntervalImpl4loadEv
libxml-security-c.so.17:_ZN24XKMSValidityIntervalImplC1EPK7XSECEnv
libxml-security-c.so.17:_ZN24XKMSValidityIntervalImplC1EPK7XSECEnvPN11xercesc_3_110DOMElementE
libxml-security-c.so.17:_ZN24XKMSValidityIntervalImplC2EPK7XSECEnv
libxml-security-c.so.17:_ZN24XKMSValidityIntervalImplC2EPK7XSECEnvPN11xercesc_3_110DOMElementE
libxml-security-c.so.17:_ZN24XKMSValidityIntervalImplD0Ev
libxml-security-c.so.17:_ZN24XKMSValidityIntervalImplD1Ev
libxml-security-c.so.17:_ZN24XKMSValidityIntervalImplD2Ev
libxml-security-c.so.17:_ZN25OpenSSLCryptoSymmetricKey11decryptInitEbN22XSECCryptoSymmetricKey16SymmetricKeyModeEPKhS3_j
libxml-security-c.so.17:_ZN25OpenSSLCryptoSymmetricKey11encryptInitEbN22XSECCryptoSymmetricKey16SymmetricKeyModeEPKh
libxml-security-c.so.17:_ZN25OpenSSLCryptoSymmetricKey13decryptFinishEPhj
libxml-security-c.so.17:_ZN25OpenSSLCryptoSymmetricKey13encryptFinishEPhjj
libxml-security-c.so.17:_ZN25OpenSSLCryptoSymmetricKey14decryptCtxInitEPKhS1_j
libxml-security-c.so.17:_ZN25OpenSSLCryptoSymmetricKey6setKeyEPKhj
libxml-security-c.so.17:_ZN25OpenSSLCryptoSymmetricKey7decryptEPKhPhjj
libxml-security-c.so.17:_ZN25OpenSSLCryptoSymmetricKey7encryptEPKhPhjj
libxml-security-c.so.17:_ZN25OpenSSLCryptoSymmetricKeyC1EN22XSECCryptoSymmetricKey16SymmetricKeyTypeE
libxml-security-c.so.17:_ZN25OpenSSLCryptoSymmetricKeyC2EN22XSECCryptoSymmetricKey16SymmetricKeyTypeE
libxml-security-c.so.17:_ZN25OpenSSLCryptoSymmetricKeyD0Ev
libxml-security-c.so.17:_ZN25OpenSSLCryptoSymmetricKeyD1Ev
libxml-security-c.so.17:_ZN25OpenSSLCryptoSymmetricKeyD2Ev
libxml-security-c.so.17:_ZN25XKMSRecoverKeyBindingImpl28createBlankRecoverKeyBindingEN10XKMSStatus11StatusValueE
libxml-security-c.so.17:_ZN25XKMSRecoverKeyBindingImpl4loadEv
libxml-security-c.so.17:_ZN25XKMSRecoverKeyBindingImplC1EPK7XSECEnv
libxml-security-c.so.17:_ZN25XKMSRecoverKeyBindingImplC1EPK7XSECEnvPN11xercesc_3_110DOMElementE
libxml-security-c.so.17:_ZN25XKMSRecoverKeyBindingImplC2EPK7XSECEnv
libxml-security-c.so.17:_ZN25XKMSRecoverKeyBindingImplC2EPK7XSECEnvPN11xercesc_3_110DOMElementE
libxml-security-c.so.17:_ZN25XKMSRecoverKeyBindingImplD0Ev
libxml-security-c.so.17:_ZN25XKMSRecoverKeyBindingImplD1Ev
libxml-security-c.so.17:_ZN25XKMSRecoverKeyBindingImplD2Ev
libxml-security-c.so.17:_ZN25XKMSReissueKeyBindingImpl28createBlankReissueKeyBindingEN10XKMSStatus11StatusValueE
libxml-security-c.so.17:_ZN25XKMSReissueKeyBindingImpl4loadEv
libxml-security-c.so.17:_ZN25XKMSReissueKeyBindingImplC1EPK7XSECEnv
libxml-security-c.so.17:_ZN25XKMSReissueKeyBindingImplC1EPK7XSECEnvPN11xercesc_3_110DOMElementE
libxml-security-c.so.17:_ZN25XKMSReissueKeyBindingImplC2EPK7XSECEnv
libxml-security-c.so.17:_ZN25XKMSReissueKeyBindingImplC2EPK7XSECEnvPN11xercesc_3_110DOMElementE
libxml-security-c.so.17:_ZN25XKMSReissueKeyBindingImplD0Ev
libxml-security-c.so.17:_ZN25XKMSReissueKeyBindingImplD1Ev
libxml-security-c.so.17:_ZN25XKMSReissueKeyBindingImplD2Ev
libxml-security-c.so.17:_ZN25XKMSResponseMechanismImpl26setResponseMechanismStringEPKt
libxml-security-c.so.17:_ZN25XKMSResponseMechanismImpl28createBlankResponseMechanismEPKt
libxml-security-c.so.17:_ZN25XKMSResponseMechanismImpl4loadEv
libxml-security-c.so.17:_ZN25XKMSResponseMechanismImplC1EPK7XSECEnv
libxml-security-c.so.17:_ZN25XKMSResponseMechanismImplC1EPK7XSECEnvPN11xercesc_3_110DOMElementE
libxml-security-c.so.17:_ZN25XKMSResponseMechanismImplC2EPK7XSECEnv
libxml-security-c.so.17:_ZN25XKMSResponseMechanismImplC2EPK7XSECEnvPN11xercesc_3_110DOMElementE
libxml-security-c.so.17:_ZN25XKMSResponseMechanismImplD0Ev
libxml-security-c.so.17:_ZN25XKMSResponseMechanismImplD1Ev
libxml-security-c.so.17:_ZN25XKMSResponseMechanismImplD2Ev
libxml-security-c.so.17:_ZN25XSECBinHTTPURIInputStream15getSocketHandleERKN11xercesc_3_16XMLUriE
libxml-security-c.so.17:_ZN25XSECBinHTTPURIInputStream9readBytesEPhm
libxml-security-c.so.17:_ZN25XSECBinHTTPURIInputStreamC1ERKN11xercesc_3_16XMLUriE
libxml-security-c.so.17:_ZN25XSECBinHTTPURIInputStreamC2ERKN11xercesc_3_16XMLUriE
libxml-security-c.so.17:_ZN25XSECBinHTTPURIInputStreamD0Ev
libxml-security-c.so.17:_ZN25XSECBinHTTPURIInputStreamD1Ev
libxml-security-c.so.17:_ZN25XSECBinHTTPURIInputStreamD2Ev
libxml-security-c.so.17:_ZN26XSECKeyInfoResolverDefault10resolveKeyEP15DSIGKeyInfoList
libxml-security-c.so.17:_ZN26XSECKeyInfoResolverDefaultC1Ev
libxml-security-c.so.17:_ZN26XSECKeyInfoResolverDefaultC2Ev
libxml-security-c.so.17:_ZN26XSECKeyInfoResolverDefaultD0Ev
libxml-security-c.so.17:_ZN26XSECKeyInfoResolverDefaultD1Ev
libxml-security-c.so.17:_ZN26XSECKeyInfoResolverDefaultD2Ev
libxml-security-c.so.17:_ZN26XSECURIResolverGenericUnix10resolveURIEPKt
libxml-security-c.so.17:_ZN26XSECURIResolverGenericUnix10setBaseURIEPKt
libxml-security-c.so.17:_ZN26XSECURIResolverGenericUnix5cloneEv
libxml-security-c.so.17:_ZN26XSECURIResolverGenericUnixC1Ev
libxml-security-c.so.17:_ZN26XSECURIResolverGenericUnixC2Ev
libxml-security-c.so.17:_ZN26XSECURIResolverGenericUnixD0Ev
libxml-security-c.so.17:_ZN26XSECURIResolverGenericUnixD1Ev
libxml-security-c.so.17:_ZN26XSECURIResolverGenericUnixD2Ev
libxml-security-c.so.17:_ZN27DSIGAlgorithmHandlerDefault14appendHashTxfmEP9TXFMChainPKt
libxml-security-c.so.17:_ZN27DSIGAlgorithmHandlerDefault15createKeyForURIEPKtPKhj
libxml-security-c.so.17:_ZN27DSIGAlgorithmHandlerDefault16signToSafeBufferEP9TXFMChainPKtP13XSECCryptoKeyjR10safeBuffer
libxml-security-c.so.17:_ZN27DSIGAlgorithmHandlerDefault19decryptToSafeBufferEP9TXFMChainP20XENCEncryptionMethodP13XSECCryptoKeyPN11xercesc_3_111DOMDocumentER10safeBuffer
libxml-security-c.so.17:_ZN27DSIGAlgorithmHandlerDefault19encryptToSafeBufferEP9TXFMChainP20XENCEncryptionMethodP13XSECCryptoKeyPN11xercesc_3_111DOMDocumentER10safeBuffer
libxml-security-c.so.17:_ZN27DSIGAlgorithmHandlerDefault21verifyBase64SignatureEP9TXFMChainPKtPKcjP13XSECCryptoKey
libxml-security-c.so.17:_ZN27DSIGAlgorithmHandlerDefault23appendDecryptCipherTXFMEP9TXFMChainP20XENCEncryptionMethodP13XSECCryptoKeyPN11xercesc_3_111DOMDocumentE
libxml-security-c.so.17:_ZN27DSIGAlgorithmHandlerDefault23appendSignatureHashTxfmEP9TXFMChainPKtP13XSECCryptoKey
libxml-security-c.so.17:_ZN27XENCAlgorithmHandlerDefault10wrapKeyAESEP9TXFMChainP13XSECCryptoKeyR10safeBuffer
libxml-security-c.so.17:_ZN27XENCAlgorithmHandlerDefault11mapURIToKeyEPKtP13XSECCryptoKeyRNS2_7KeyTypeERN22XSECCryptoSymmetricKey16SymmetricKeyTypeERbRNS6_16SymmetricKeyModeERj
libxml-security-c.so.17:_ZN27XENCAlgorithmHandlerDefault11wrapKey3DESEP9TXFMChainP13XSECCryptoKeyR10safeBuffer
libxml-security-c.so.17:_ZN27XENCAlgorithmHandlerDefault12unwrapKeyAESEP9TXFMChainP13XSECCryptoKeyR10safeBuffer
libxml-security-c.so.17:_ZN27XENCAlgorithmHandlerDefault13unwrapKey3DESEP9TXFMChainP13XSECCryptoKeyR10safeBuffer
libxml-security-c.so.17:_ZN27XENCAlgorithmHandlerDefault14appendHashTxfmEP9TXFMChainPKt
libxml-security-c.so.17:_ZN27XENCAlgorithmHandlerDefault15createKeyForURIEPKtPKhj
libxml-security-c.so.17:_ZN27XENCAlgorithmHandlerDefault16signToSafeBufferEP9TXFMChainPKtP13XSECCryptoKeyjR10safeBuffer
libxml-security-c.so.17:_ZN27XENCAlgorithmHandlerDefault19decryptToSafeBufferEP9TXFMChainP20XENCEncryptionMethodP13XSECCryptoKeyPN11xercesc_3_111DOMDocumentER10safeBuffer
libxml-security-c.so.17:_ZN27XENCAlgorithmHandlerDefault19encryptToSafeBufferEP9TXFMChainP20XENCEncryptionMethodP13XSECCryptoKeyPN11xercesc_3_111DOMDocumentER10safeBuffer
libxml-security-c.so.17:_ZN27XENCAlgorithmHandlerDefault21verifyBase64SignatureEP9TXFMChainPKtPKcjP13XSECCryptoKey
libxml-security-c.so.17:_ZN27XENCAlgorithmHandlerDefault23appendDecryptCipherTXFMEP9TXFMChainP20XENCEncryptionMethodP13XSECCryptoKeyPN11xercesc_3_111DOMDocumentE
libxml-security-c.so.17:_ZN27XENCAlgorithmHandlerDefault23appendSignatureHashTxfmEP9TXFMChainPKtP13XSECCryptoKey
libxml-security-c.so.17:_ZN27XENCAlgorithmHandlerDefault24doGCMDecryptToSafeBufferEP9TXFMChainP13XSECCryptoKeyjR10safeBuffer
libxml-security-c.so.17:_ZN27XENCAlgorithmHandlerDefault24doRSADecryptToSafeBufferEP9TXFMChainP20XENCEncryptionMethodP13XSECCryptoKeyPN11xercesc_3_111DOMDocumentER10safeBuffer
libxml-security-c.so.17:_ZN27XENCAlgorithmHandlerDefault24doRSAEncryptToSafeBufferEP9TXFMChainP20XENCEncryptionMethodP13XSECCryptoKeyPN11xercesc_3_111DOMDocumentER10safeBuffer
libxml-security-c.so.17:_ZN27XKMSMessageAbstractTypeImpl10setServiceEPKt
libxml-security-c.so.17:_ZN27XKMSMessageAbstractTypeImpl12addSignatureE22canonicalizationMethod15signatureMethod10hashMethod
libxml-security-c.so.17:_ZN27XKMSMessageAbstractTypeImpl23getOpaqueClientDataSizeEv
libxml-security-c.so.17:_ZN27XKMSMessageAbstractTypeImpl26appendOpaqueClientDataItemEPKt
libxml-security-c.so.17:_ZN27XKMSMessageAbstractTypeImpl26getOpaqueClientDataItemStrEi
libxml-security-c.so.17:_ZN27XKMSMessageAbstractTypeImpl30createBlankMessageAbstractTypeEPKtS1_S1_
libxml-security-c.so.17:_ZN27XKMSMessageAbstractTypeImpl4loadEv
libxml-security-c.so.17:_ZN27XKMSMessageAbstractTypeImpl5setIdEPKt
libxml-security-c.so.17:_ZN27XKMSMessageAbstractTypeImpl8setNonceEPKt
libxml-security-c.so.17:_ZN27XKMSMessageAbstractTypeImplC1EPK7XSECEnv
libxml-security-c.so.17:_ZN27XKMSMessageAbstractTypeImplC1EPK7XSECEnvPN11xercesc_3_110DOMElementE
libxml-security-c.so.17:_ZN27XKMSMessageAbstractTypeImplC2EPK7XSECEnv
libxml-security-c.so.17:_ZN27XKMSMessageAbstractTypeImplC2EPK7XSECEnvPN11xercesc_3_110DOMElementE
libxml-security-c.so.17:_ZN27XKMSMessageAbstractTypeImplD0Ev
libxml-security-c.so.17:_ZN27XKMSMessageAbstractTypeImplD1Ev
libxml-security-c.so.17:_ZN27XKMSMessageAbstractTypeImplD2Ev
libxml-security-c.so.17:_ZN27XKMSPrototypeKeyBindingImpl19setValidityIntervalEPKtS1_
libxml-security-c.so.17:_ZN27XKMSPrototypeKeyBindingImpl27setRevocationCodeIdentifierEPKt
libxml-security-c.so.17:_ZN27XKMSPrototypeKeyBindingImpl30createBlankPrototypeKeyBindingEv
libxml-security-c.so.17:_ZN27XKMSPrototypeKeyBindingImpl4loadEv
libxml-security-c.so.17:_ZN27XKMSPrototypeKeyBindingImplC1EPK7XSECEnv
libxml-security-c.so.17:_ZN27XKMSPrototypeKeyBindingImplC1EPK7XSECEnvPN11xercesc_3_110DOMElementE
libxml-security-c.so.17:_ZN27XKMSPrototypeKeyBindingImplC2EPK7XSECEnv
libxml-security-c.so.17:_ZN27XKMSPrototypeKeyBindingImplC2EPK7XSECEnvPN11xercesc_3_110DOMElementE
libxml-security-c.so.17:_ZN27XKMSPrototypeKeyBindingImplD0Ev
libxml-security-c.so.17:_ZN27XKMSPrototypeKeyBindingImplD1Ev
libxml-security-c.so.17:_ZN27XKMSPrototypeKeyBindingImplD2Ev
libxml-security-c.so.17:_ZN27XKMSRequestAbstractTypeImpl16setResponseLimitEj
libxml-security-c.so.17:_ZN27XKMSRequestAbstractTypeImpl18getRespondWithItemEi
libxml-security-c.so.17:_ZN27XKMSRequestAbstractTypeImpl18getRespondWithSizeEv
libxml-security-c.so.17:_ZN27XKMSRequestAbstractTypeImpl20setOriginalRequestIdEPKt
libxml-security-c.so.17:_ZN27XKMSRequestAbstractTypeImpl21appendRespondWithItemEP15XKMSRespondWith
libxml-security-c.so.17:_ZN27XKMSRequestAbstractTypeImpl21appendRespondWithItemEPKt
libxml-security-c.so.17:_ZN27XKMSRequestAbstractTypeImpl21getRespondWithItemStrEi
libxml-security-c.so.17:_ZN27XKMSRequestAbstractTypeImpl24getResponseMechanismItemEi
libxml-security-c.so.17:_ZN27XKMSRequestAbstractTypeImpl24getResponseMechanismSizeEv
libxml-security-c.so.17:_ZN27XKMSRequestAbstractTypeImpl27appendResponseMechanismItemEP21XKMSResponseMechanism
libxml-security-c.so.17:_ZN27XKMSRequestAbstractTypeImpl27appendResponseMechanismItemEPKt
libxml-security-c.so.17:_ZN27XKMSRequestAbstractTypeImpl27getResponseMechanismItemStrEi
libxml-security-c.so.17:_ZN27XKMSRequestAbstractTypeImpl27removeResponseMechanismItemEi
libxml-security-c.so.17:_ZN27XKMSRequestAbstractTypeImpl30createBlankRequestAbstractTypeEPKtS1_S1_
libxml-security-c.so.17:_ZN27XKMSRequestAbstractTypeImpl4loadEv
libxml-security-c.so.17:_ZN27XKMSRequestAbstractTypeImplC1EPK7XSECEnv
libxml-security-c.so.17:_ZN27XKMSRequestAbstractTypeImplC1EPK7XSECEnvPN11xercesc_3_110DOMElementE
libxml-security-c.so.17:_ZN27XKMSRequestAbstractTypeImplC2EPK7XSECEnv
libxml-security-c.so.17:_ZN27XKMSRequestAbstractTypeImplC2EPK7XSECEnvPN11xercesc_3_110DOMElementE
libxml-security-c.so.17:_ZN27XKMSRequestAbstractTypeImplD0Ev
libxml-security-c.so.17:_ZN27XKMSRequestAbstractTypeImplD1Ev
libxml-security-c.so.17:_ZN27XKMSRequestAbstractTypeImplD2Ev
libxml-security-c.so.17:_ZN28XKMSUnverifiedKeyBindingImpl31createBlankUnverifiedKeyBindingEv
libxml-security-c.so.17:_ZN28XKMSUnverifiedKeyBindingImpl4loadEv
libxml-security-c.so.17:_ZN28XKMSUnverifiedKeyBindingImplC1EPK7XSECEnv
libxml-security-c.so.17:_ZN28XKMSUnverifiedKeyBindingImplC1EPK7XSECEnvPN11xercesc_3_110DOMElementE
libxml-security-c.so.17:_ZN28XKMSUnverifiedKeyBindingImplC2EPK7XSECEnv
libxml-security-c.so.17:_ZN28XKMSUnverifiedKeyBindingImplC2EPK7XSECEnvPN11xercesc_3_110DOMElementE
libxml-security-c.so.17:_ZN28XKMSUnverifiedKeyBindingImplD0Ev
libxml-security-c.so.17:_ZN28XKMSUnverifiedKeyBindingImplD1Ev
libxml-security-c.so.17:_ZN28XKMSUnverifiedKeyBindingImplD2Ev
libxml-security-c.so.17:_ZN30XKMSKeyBindingAbstractTypeImpl11setKeyUsageEPKt
libxml-security-c.so.17:_ZN30XKMSKeyBindingAbstractTypeImpl12clearKeyInfoEv
libxml-security-c.so.17:_ZN30XKMSKeyBindingAbstractTypeImpl13appendKeyNameEPKtb
libxml-security-c.so.17:_ZN30XKMSKeyBindingAbstractTypeImpl13appendPGPDataEPKtS1_
libxml-security-c.so.17:_ZN30XKMSKeyBindingAbstractTypeImpl14appendMgmtDataEPKt
libxml-security-c.so.17:_ZN30XKMSKeyBindingAbstractTypeImpl14appendSPKIDataEPKt
libxml-security-c.so.17:_ZN30XKMSKeyBindingAbstractTypeImpl14appendX509DataEv
libxml-security-c.so.17:_ZN30XKMSKeyBindingAbstractTypeImpl14getKeyInfoListEv
libxml-security-c.so.17:_ZN30XKMSKeyBindingAbstractTypeImpl17appendDSAKeyValueEPKtS1_S1_S1_
libxml-security-c.so.17:_ZN30XKMSKeyBindingAbstractTypeImpl17appendRSAKeyValueEPKtS1_
libxml-security-c.so.17:_ZN30XKMSKeyBindingAbstractTypeImpl19setExchangeKeyUsageEv
libxml-security-c.so.17:_ZN30XKMSKeyBindingAbstractTypeImpl20appendUseKeyWithItemEPKtS1_
libxml-security-c.so.17:_ZN30XKMSKeyBindingAbstractTypeImpl20createKeyInfoElementEv
libxml-security-c.so.17:_ZN30XKMSKeyBindingAbstractTypeImpl20setSignatureKeyUsageEv
libxml-security-c.so.17:_ZN30XKMSKeyBindingAbstractTypeImpl21setEncryptionKeyUsageEv
libxml-security-c.so.17:_ZN30XKMSKeyBindingAbstractTypeImpl33createBlankKeyBindingAbstractTypeEPKt
libxml-security-c.so.17:_ZN30XKMSKeyBindingAbstractTypeImpl4loadEv
libxml-security-c.so.17:_ZN30XKMSKeyBindingAbstractTypeImpl5setIdEPKt
libxml-security-c.so.17:_ZN30XKMSKeyBindingAbstractTypeImplC1EPK7XSECEnv
libxml-security-c.so.17:_ZN30XKMSKeyBindingAbstractTypeImplC1EPK7XSECEnvPN11xercesc_3_110DOMElementE
libxml-security-c.so.17:_ZN30XKMSKeyBindingAbstractTypeImplC2EPK7XSECEnv
libxml-security-c.so.17:_ZN30XKMSKeyBindingAbstractTypeImplC2EPK7XSECEnvPN11xercesc_3_110DOMElementE
libxml-security-c.so.17:_ZN30XKMSKeyBindingAbstractTypeImplD0Ev
libxml-security-c.so.17:_ZN30XKMSKeyBindingAbstractTypeImplD1Ev
libxml-security-c.so.17:_ZN30XKMSKeyBindingAbstractTypeImplD2Ev
libxml-security-c.so.17:_ZN30XKMSNotBoundAuthenticationImpl11setProtocolEPKt
libxml-security-c.so.17:_ZN30XKMSNotBoundAuthenticationImpl33createBlankNotBoundAuthenticationEPKtS1_
libxml-security-c.so.17:_ZN30XKMSNotBoundAuthenticationImpl4loadEv
libxml-security-c.so.17:_ZN30XKMSNotBoundAuthenticationImpl8setValueEPKt
libxml-security-c.so.17:_ZN30XKMSNotBoundAuthenticationImplC1EPK7XSECEnv
libxml-security-c.so.17:_ZN30XKMSNotBoundAuthenticationImplC1EPK7XSECEnvPN11xercesc_3_110DOMElementE
libxml-security-c.so.17:_ZN30XKMSNotBoundAuthenticationImplC2EPK7XSECEnv
libxml-security-c.so.17:_ZN30XKMSNotBoundAuthenticationImplC2EPK7XSECEnvPN11xercesc_3_110DOMElementE
libxml-security-c.so.17:_ZN30XKMSNotBoundAuthenticationImplD0Ev
libxml-security-c.so.17:_ZN30XKMSNotBoundAuthenticationImplD1Ev
libxml-security-c.so.17:_ZN30XKMSNotBoundAuthenticationImplD2Ev
libxml-security-c.so.17:_ZN4XMLT13getUnicodeStrEv
libxml-security-c.so.17:_ZN4XMLTC1EPKc
libxml-security-c.so.17:_ZN4XMLTC2EPKc
libxml-security-c.so.17:_ZN4XMLTD1Ev
libxml-security-c.so.17:_ZN4XMLTD2Ev
libxml-security-c.so.17:_ZN6TXFMSB11getDocumentEv
libxml-security-c.so.17:_ZN6TXFMSB11getNodeTypeEv
libxml-security-c.so.17:_ZN6TXFMSB12getInputTypeEv
libxml-security-c.so.17:_ZN6TXFMSB13getFragmentIdEv
libxml-security-c.so.17:_ZN6TXFMSB13getOutputTypeEv
libxml-security-c.so.17:_ZN6TXFMSB15getFragmentNodeEv
libxml-security-c.so.17:_ZN6TXFMSB8setInputEP8TXFMBase
libxml-security-c.so.17:_ZN6TXFMSB8setInputERK10safeBuffer
libxml-security-c.so.17:_ZN6TXFMSB8setInputERK10safeBufferj
libxml-security-c.so.17:_ZN6TXFMSB9readBytesEPhj
libxml-security-c.so.17:_ZN6TXFMSBC1EPN11xercesc_3_111DOMDocumentE
libxml-security-c.so.17:_ZN6TXFMSBC2EPN11xercesc_3_111DOMDocumentE
libxml-security-c.so.17:_ZN6TXFMSBD0Ev
libxml-security-c.so.17:_ZN6TXFMSBD1Ev
libxml-security-c.so.17:_ZN6TXFMSBD2Ev
libxml-security-c.so.17:_ZN7TXFMMD511getDocumentEv
libxml-security-c.so.17:_ZN7TXFMMD511getNodeTypeEv
libxml-security-c.so.17:_ZN7TXFMMD512getInputTypeEv
libxml-security-c.so.17:_ZN7TXFMMD513getFragmentIdEv
libxml-security-c.so.17:_ZN7TXFMMD513getOutputTypeEv
libxml-security-c.so.17:_ZN7TXFMMD515getFragmentNodeEv
libxml-security-c.so.17:_ZN7TXFMMD58setInputEP8TXFMBase
libxml-security-c.so.17:_ZN7TXFMMD59readBytesEPhj
libxml-security-c.so.17:_ZN7TXFMMD5C1EPN11xercesc_3_111DOMDocumentEP13XSECCryptoKey
libxml-security-c.so.17:_ZN7TXFMMD5C2EPN11xercesc_3_111DOMDocumentEP13XSECCryptoKey
libxml-security-c.so.17:_ZN7TXFMMD5D0Ev
libxml-security-c.so.17:_ZN7TXFMMD5D1Ev
libxml-security-c.so.17:_ZN7TXFMMD5D2Ev
libxml-security-c.so.17:_ZN7TXFMURL11getDocumentEv
libxml-security-c.so.17:_ZN7TXFMURL11getNodeTypeEv
libxml-security-c.so.17:_ZN7TXFMURL12getInputTypeEv
libxml-security-c.so.17:_ZN7TXFMURL13getFragmentIdEv
libxml-security-c.so.17:_ZN7TXFMURL13getOutputTypeEv
libxml-security-c.so.17:_ZN7TXFMURL15getFragmentNodeEv
libxml-security-c.so.17:_ZN7TXFMURL8setInputEP8TXFMBase
libxml-security-c.so.17:_ZN7TXFMURL8setInputEPKt
libxml-security-c.so.17:_ZN7TXFMURL8setInputEPN11xercesc_3_114BinInputStreamE
libxml-security-c.so.17:_ZN7TXFMURL9readBytesEPhj
libxml-security-c.so.17:_ZN7TXFMURLC1EPN11xercesc_3_111DOMDocumentEP15XSECURIResolver
libxml-security-c.so.17:_ZN7TXFMURLC2EPN11xercesc_3_111DOMDocumentEP15XSECURIResolver
libxml-security-c.so.17:_ZN7TXFMURLD0Ev
libxml-security-c.so.17:_ZN7TXFMURLD1Ev
libxml-security-c.so.17:_ZN7TXFMURLD2Ev
libxml-security-c.so.17:_ZN7XSECEnv13setECNSPrefixEPKt
libxml-security-c.so.17:_ZN7XSECEnv14setURIResolverEP15XSECURIResolver
libxml-security-c.so.17:_ZN7XSECEnv14setXPFNSPrefixEPKt
libxml-security-c.so.17:_ZN7XSECEnv15setDSIGNSPrefixEPKt
libxml-security-c.so.17:_ZN7XSECEnv15setXENCNSPrefixEPKt
libxml-security-c.so.17:_ZN7XSECEnv15setXKMSNSPrefixEPKt
libxml-security-c.so.17:_ZN7XSECEnv17setDSIG11NSPrefixEPKt
libxml-security-c.so.17:_ZN7XSECEnv17setXENC11NSPrefixEPKt
libxml-security-c.so.17:_ZN7XSECEnv20setIdByAttributeNameEb
libxml-security-c.so.17:_ZN7XSECEnv23registerIdAttributeNameEPKt
libxml-security-c.so.17:_ZN7XSECEnv25deregisterIdAttributeNameEPKt
libxml-security-c.so.17:_ZN7XSECEnv25registerIdAttributeNameNSEPKtS1_
libxml-security-c.so.17:_ZN7XSECEnv27deregisterIdAttributeNameNSEPKtS1_
libxml-security-c.so.17:_ZN7XSECEnvC1EPN11xercesc_3_111DOMDocumentE
libxml-security-c.so.17:_ZN7XSECEnvC1ERKS_
libxml-security-c.so.17:_ZN7XSECEnvC2EPN11xercesc_3_111DOMDocumentE
libxml-security-c.so.17:_ZN7XSECEnvC2ERKS_
libxml-security-c.so.17:_ZN7XSECEnvD0Ev
libxml-security-c.so.17:_ZN7XSECEnvD1Ev
libxml-security-c.so.17:_ZN7XSECEnvD2Ev
libxml-security-c.so.17:_ZN8TXFMBase16activateCommentsEv
libxml-security-c.so.17:_ZN8TXFMBase16expandNameSpacesEv
libxml-security-c.so.17:_ZN8TXFMBase18nameSpacesExpandedEv
libxml-security-c.so.17:_ZN8TXFMBase24deleteExpandedNameSpacesEv
libxml-security-c.so.17:_ZN8TXFMBaseD0Ev
libxml-security-c.so.17:_ZN8TXFMBaseD1Ev
libxml-security-c.so.17:_ZN8TXFMBaseD2Ev
libxml-security-c.so.17:_ZN8TXFMC14n11getDocumentEv
libxml-security-c.so.17:_ZN8TXFMC14n11getNodeTypeEv
libxml-security-c.so.17:_ZN8TXFMC14n12getInputTypeEv
libxml-security-c.so.17:_ZN8TXFMC14n12setExclusiveER10safeBuffer
libxml-security-c.so.17:_ZN8TXFMC14n12setExclusiveEv
libxml-security-c.so.17:_ZN8TXFMC14n13getFragmentIdEv
libxml-security-c.so.17:_ZN8TXFMC14n13getOutputTypeEv
libxml-security-c.so.17:_ZN8TXFMC14n14setInclusive11Ev
libxml-security-c.so.17:_ZN8TXFMC14n15getFragmentNodeEv
libxml-security-c.so.17:_ZN8TXFMC14n16activateCommentsEv
libxml-security-c.so.17:_ZN8TXFMC14n8setInputEP8TXFMBase
libxml-security-c.so.17:_ZN8TXFMC14n9readBytesEPhj
libxml-security-c.so.17:_ZN8TXFMC14nC1EPN11xercesc_3_111DOMDocumentE
libxml-security-c.so.17:_ZN8TXFMC14nC2EPN11xercesc_3_111DOMDocumentE
libxml-security-c.so.17:_ZN8TXFMC14nD0Ev
libxml-security-c.so.17:_ZN8TXFMC14nD1Ev
libxml-security-c.so.17:_ZN8TXFMC14nD2Ev
libxml-security-c.so.17:_ZN8TXFMSHA111getDocumentEv
libxml-security-c.so.17:_ZN8TXFMSHA111getNodeTypeEv
libxml-security-c.so.17:_ZN8TXFMSHA112getInputTypeEv
libxml-security-c.so.17:_ZN8TXFMSHA113getFragmentIdEv
libxml-security-c.so.17:_ZN8TXFMSHA113getOutputTypeEv
libxml-security-c.so.17:_ZN8TXFMSHA115getFragmentNodeEv
libxml-security-c.so.17:_ZN8TXFMSHA18setInputEP8TXFMBase
libxml-security-c.so.17:_ZN8TXFMSHA19readBytesEPhj
libxml-security-c.so.17:_ZN8TXFMSHA1C1EPN11xercesc_3_111DOMDocumentE10hashMethodP13XSECCryptoKey
libxml-security-c.so.17:_ZN8TXFMSHA1C2EPN11xercesc_3_111DOMDocumentE10hashMethodP13XSECCryptoKey
libxml-security-c.so.17:_ZN8TXFMSHA1D0Ev
libxml-security-c.so.17:_ZN8TXFMSHA1D1Ev
libxml-security-c.so.17:_ZN8TXFMSHA1D2Ev
libxml-security-c.so.17:_ZN9TXFMChain10appendTxfmEP8TXFMBase
libxml-security-c.so.17:_ZN9TXFMChain15deleteTXFMChainEP8TXFMBase
libxml-security-c.so.17:_ZN9TXFMChainC1EP8TXFMBaseb
libxml-security-c.so.17:_ZN9TXFMChainC2EP8TXFMBaseb
libxml-security-c.so.17:_ZN9TXFMChainD1Ev
libxml-security-c.so.17:_ZN9TXFMChainD2Ev
libxml-security-c.so.17:_ZN9XSECCanon12outputBufferEPhm
libxml-security-c.so.17:_ZN9XSECCanon12setStartNodeEPN11xercesc_3_17DOMNodeE
libxml-security-c.so.17:_ZN9XSECCanonC1EPN11xercesc_3_111DOMDocumentE
libxml-security-c.so.17:_ZN9XSECCanonC1EPN11xercesc_3_111DOMDocumentEPNS0_7DOMNodeE
libxml-security-c.so.17:_ZN9XSECCanonC1Ev
libxml-security-c.so.17:_ZN9XSECCanonC2EPN11xercesc_3_111DOMDocumentE
libxml-security-c.so.17:_ZN9XSECCanonC2EPN11xercesc_3_111DOMDocumentEPNS0_7DOMNodeE
libxml-security-c.so.17:_ZN9XSECCanonC2Ev
libxml-security-c.so.17:_ZN9XSECCanonD0Ev
libxml-security-c.so.17:_ZN9XSECCanonD1Ev
libxml-security-c.so.17:_ZN9XSECCanonD2Ev
libxml-security-c.so.17:_ZNK10safeBuffer11sbMemcpyOutEPvm
libxml-security-c.so.17:_ZNK10safeBuffer12sbStrToXMLChEv
libxml-security-c.so.17:_ZNK10safeBuffer13rawCharBufferEv
libxml-security-c.so.17:_ZNK10safeBuffer14rawXMLChBufferEv
libxml-security-c.so.17:_ZNK10safeBuffer14sbOffsetStrcmpEPKcm
libxml-security-c.so.17:_ZNK10safeBuffer14sbOffsetStrstrEPKcm
libxml-security-c.so.17:_ZNK10safeBuffer15checkBufferTypeENS_10bufferTypeE
libxml-security-c.so.17:_ZNK10safeBuffer15sbOffsetStrncmpEPKcmm
libxml-security-c.so.17:_ZNK10safeBuffer15sbRawBufferSizeEv
libxml-security-c.so.17:_ZNK10safeBuffer8sbStrcmpEPKc
libxml-security-c.so.17:_ZNK10safeBuffer8sbStrcmpERKS_
libxml-security-c.so.17:_ZNK10safeBuffer8sbStrlenEv
libxml-security-c.so.17:_ZNK10safeBuffer8sbStrstrEPKc
libxml-security-c.so.17:_ZNK10safeBuffer8sbStrstrEPKt
libxml-security-c.so.17:_ZNK10safeBuffer9rawBufferEv
libxml-security-c.so.17:_ZNK10safeBuffer9sbStrncmpEPKcm
libxml-security-c.so.17:_ZNK13DSIGReference18makeBinInputStreamEv
libxml-security-c.so.17:_ZNK13DSIGSignature10getErrMsgsEv
libxml-security-c.so.17:_ZNK13DSIGSignature13getECNSPrefixEv
libxml-security-c.so.17:_ZNK13DSIGSignature13getObjectItemEi
libxml-security-c.so.17:_ZNK13DSIGSignature14getPrettyPrintEv
libxml-security-c.so.17:_ZNK13DSIGSignature14getURIResolverEv
libxml-security-c.so.17:_ZNK13DSIGSignature14getXPFNSPrefixEv
libxml-security-c.so.17:_ZNK13DSIGSignature15getAlgorithmURIEv
libxml-security-c.so.17:_ZNK13DSIGSignature15getDSIGNSPrefixEv
libxml-security-c.so.17:_ZNK13DSIGSignature15getObjectLengthEv
libxml-security-c.so.17:_ZNK13DSIGSignature16getReferenceListEv
libxml-security-c.so.17:_ZNK13DSIGSignature17getSignatureValueEv
libxml-security-c.so.17:_ZNK13DSIGSignature18getKeyInfoResolverEv
libxml-security-c.so.17:_ZNK13DSIGSignature18makeBinInputStreamEv
libxml-security-c.so.17:_ZNK13DSIGSignature20getIdByAttributeNameEv
libxml-security-c.so.17:_ZNK14XENCCipherImpl15getXENCNSPrefixEv
libxml-security-c.so.17:_ZNK14XKMSStatusImpl14getStatusValueEv
libxml-security-c.so.17:_ZNK14XKMSStatusImpl15getStatusReasonEN10XKMSStatus11StatusValueENS0_12StatusReasonE
libxml-security-c.so.17:_ZNK15DSIGKeyInfoList4itemEm
libxml-security-c.so.17:_ZNK15DSIGKeyInfoList7getSizeEv
libxml-security-c.so.17:_ZNK15DSIGKeyInfoList7isEmptyEv
libxml-security-c.so.17:_ZNK15DSIGKeyInfoX50910getKeyNameEv
libxml-security-c.so.17:_ZNK15DSIGKeyInfoX50910getX509CRLEv
libxml-security-c.so.17:_ZNK15DSIGKeyInfoX50910getX509SKIEv
libxml-security-c.so.17:_ZNK15DSIGKeyInfoX50914getX509CRLItemEi
libxml-security-c.so.17:_ZNK15DSIGKeyInfoX50917getX509IssuerNameEv
libxml-security-c.so.17:_ZNK15DSIGKeyInfoX50918getCertificateItemEi
libxml-security-c.so.17:_ZNK15DSIGKeyInfoX50918getRawRetrievalURIEv
libxml-security-c.so.17:_ZNK15DSIGKeyInfoX50918getX509CRLListSizeEv
libxml-security-c.so.17:_ZNK15DSIGKeyInfoX50918getX509DigestValueEv
libxml-security-c.so.17:_ZNK15DSIGKeyInfoX50918getX509SubjectNameEv
libxml-security-c.so.17:_ZNK15DSIGKeyInfoX50922getCertificateListSizeEv
libxml-security-c.so.17:_ZNK15DSIGKeyInfoX50922getX509DigestAlgorithmEv
libxml-security-c.so.17:_ZNK15DSIGKeyInfoX50924getCertificateCryptoItemEi
libxml-security-c.so.17:_ZNK15DSIGKeyInfoX50925getX509IssuerSerialNumberEv
libxml-security-c.so.17:_ZNK16DSIGKeyInfoValue10getKeyNameEv
libxml-security-c.so.17:_ZNK16DSIGKeyInfoValue13getRSAModulusEv
libxml-security-c.so.17:_ZNK16DSIGKeyInfoValue14getECPublicKeyEv
libxml-security-c.so.17:_ZNK16DSIGKeyInfoValue14getKeyInfoTypeEv
libxml-security-c.so.17:_ZNK16DSIGKeyInfoValue14getRSAExponentEv
libxml-security-c.so.17:_ZNK16DSIGKeyInfoValue15getECNamedCurveEv
libxml-security-c.so.17:_ZNK17OpenSSLCryptoHash11getHashTypeEv
libxml-security-c.so.17:_ZNK17OpenSSLCryptoX50914clonePublicKeyEv
libxml-security-c.so.17:_ZNK17OpenSSLCryptoX50915getProviderNameEv
libxml-security-c.so.17:_ZNK17OpenSSLCryptoX50916getPublicKeyTypeEv
libxml-security-c.so.17:_ZNK17XSECXPathNodeList11getNextNodeEv
libxml-security-c.so.17:_ZNK17XSECXPathNodeList12getFirstNodeEv
libxml-security-c.so.17:_ZNK17XSECXPathNodeList13balance_countEPNS_5s_btnE
libxml-security-c.so.17:_ZNK17XSECXPathNodeList13findNodeIndexEPKN11xercesc_3_17DOMNodeE
libxml-security-c.so.17:_ZNK17XSECXPathNodeList7hasNodeEPKN11xercesc_3_17DOMNodeE
libxml-security-c.so.17:_ZNK17XSECXPathNodeList9copy_treeEPNS_5s_btnE
libxml-security-c.so.17:_ZNK18OpenSSLCryptoKeyEC10getKeyTypeEv
libxml-security-c.so.17:_ZNK18OpenSSLCryptoKeyEC5cloneEv
libxml-security-c.so.17:_ZNK18XKMSKeyBindingImpl9getStatusEv
libxml-security-c.so.17:_ZNK18XKMSRSAKeyPairImpl10getModulusEv
libxml-security-c.so.17:_ZNK18XKMSRSAKeyPairImpl11getExponentEv
libxml-security-c.so.17:_ZNK18XKMSRSAKeyPairImpl11getInverseQEv
libxml-security-c.so.17:_ZNK18XKMSRSAKeyPairImpl4getDEv
libxml-security-c.so.17:_ZNK18XKMSRSAKeyPairImpl4getPEv
libxml-security-c.so.17:_ZNK18XKMSRSAKeyPairImpl4getQEv
libxml-security-c.so.17:_ZNK18XKMSRSAKeyPairImpl5getDPEv
libxml-security-c.so.17:_ZNK18XKMSRSAKeyPairImpl5getDQEv
libxml-security-c.so.17:_ZNK18XKMSResultTypeImpl12getRequestIdEv
libxml-security-c.so.17:_ZNK18XKMSResultTypeImpl14getResultMajorEv
libxml-security-c.so.17:_ZNK18XKMSResultTypeImpl14getResultMinorEv
libxml-security-c.so.17:_ZNK18XKMSResultTypeImpl24getRequestSignatureValueEv
libxml-security-c.so.17:_ZNK18XKMSUseKeyWithImpl10getElementEv
libxml-security-c.so.17:_ZNK18XKMSUseKeyWithImpl13getIdentifierEv
libxml-security-c.so.17:_ZNK18XKMSUseKeyWithImpl14getApplicationEv
libxml-security-c.so.17:_ZNK18XSECCryptoProvider5keyECEv
libxml-security-c.so.17:_ZNK18XSECCryptoProvider6keyDEREPKcmb
libxml-security-c.so.17:_ZNK19DSIGKeyInfoSPKIData11getSexpSizeEv
libxml-security-c.so.17:_ZNK19DSIGKeyInfoSPKIData7getSexpEj
libxml-security-c.so.17:_ZNK19OpenSSLCryptoKeyDSA10getKeyTypeEv
libxml-security-c.so.17:_ZNK19OpenSSLCryptoKeyDSA5cloneEv
libxml-security-c.so.17:_ZNK19OpenSSLCryptoKeyRSA10getKeyTypeEv
libxml-security-c.so.17:_ZNK19OpenSSLCryptoKeyRSA13getOAEPparamsEv
libxml-security-c.so.17:_ZNK19OpenSSLCryptoKeyRSA16getOAEPparamsLenEv
libxml-security-c.so.17:_ZNK19OpenSSLCryptoKeyRSA5cloneEv
libxml-security-c.so.17:_ZNK19OpenSSLCryptoKeyRSA6getMGFEv
libxml-security-c.so.17:_ZNK19OpenSSLCryptoKeyRSA9getLengthEv
libxml-security-c.so.17:_ZNK19XENCCipherValueImpl15getCipherStringEv
libxml-security-c.so.17:_ZNK19XKMSRespondWithImpl20getRespondWithStringEv
libxml-security-c.so.17:_ZNK19XSECAlgorithmMapper15mapURIToHandlerEPKt
libxml-security-c.so.17:_ZNK19XSECAlgorithmMapper9findEntryEPKt
libxml-security-c.so.17:_ZNK19XSECTXFMInputSource10makeStreamEv
libxml-security-c.so.17:_ZNK20OpenSSLCryptoKeyHMAC5cloneEv
libxml-security-c.so.17:_ZNK20OpenSSLCryptoKeyHMAC6getKeyER10safeBuffer
libxml-security-c.so.17:_ZNK20XENCEncryptedKeyImpl12getRecipientEv
libxml-security-c.so.17:_ZNK20XENCEncryptedKeyImpl17getCarriedKeyNameEv
libxml-security-c.so.17:_ZNK20XKMSLocateResultImpl27getUnverifiedKeyBindingItemEi
libxml-security-c.so.17:_ZNK20XKMSLocateResultImpl27getUnverifiedKeyBindingSizeEv
libxml-security-c.so.17:_ZNK20XKMSRevokeResultImpl17getKeyBindingItemEi
libxml-security-c.so.17:_ZNK20XKMSRevokeResultImpl17getKeyBindingSizeEv
libxml-security-c.so.17:_ZNK20XKMSStatusResultImpl15getFailureCountEv
libxml-security-c.so.17:_ZNK20XKMSStatusResultImpl15getPendingCountEv
libxml-security-c.so.17:_ZNK20XKMSStatusResultImpl15getSuccessCountEv
libxml-security-c.so.17:_ZNK21OpenSSLCryptoHashHMAC11getHashTypeEv
libxml-security-c.so.17:_ZNK21OpenSSLCryptoProvider11hashHMACMD5Ev
libxml-security-c.so.17:_ZNK21OpenSSLCryptoProvider11hashHMACSHAEi
libxml-security-c.so.17:_ZNK21OpenSSLCryptoProvider12hashHMACSHA1Ev
libxml-security-c.so.17:_ZNK21OpenSSLCryptoProvider12keySymmetricEN22XSECCryptoSymmetricKey16SymmetricKeyTypeE
libxml-security-c.so.17:_ZNK21OpenSSLCryptoProvider14curveNameToNIDEPKc
libxml-security-c.so.17:_ZNK21OpenSSLCryptoProvider15getProviderNameEv
libxml-security-c.so.17:_ZNK21OpenSSLCryptoProvider18algorithmSupportedEN14XSECCryptoHash8HashTypeE
libxml-security-c.so.17:_ZNK21OpenSSLCryptoProvider18algorithmSupportedEN22XSECCryptoSymmetricKey16SymmetricKeyTypeE
libxml-security-c.so.17:_ZNK21OpenSSLCryptoProvider4X509Ev
libxml-security-c.so.17:_ZNK21OpenSSLCryptoProvider5keyECEv
libxml-security-c.so.17:_ZNK21OpenSSLCryptoProvider6base64Ev
libxml-security-c.so.17:_ZNK21OpenSSLCryptoProvider6keyDEREPKcmb
libxml-security-c.so.17:_ZNK21OpenSSLCryptoProvider6keyDSAEv
libxml-security-c.so.17:_ZNK21OpenSSLCryptoProvider6keyRSAEv
libxml-security-c.so.17:_ZNK21OpenSSLCryptoProvider7hashMD5Ev
libxml-security-c.so.17:_ZNK21OpenSSLCryptoProvider7hashSHAEi
libxml-security-c.so.17:_ZNK21OpenSSLCryptoProvider7keyHMACEv
libxml-security-c.so.17:_ZNK21OpenSSLCryptoProvider8hashSHA1Ev
libxml-security-c.so.17:_ZNK21OpenSSLCryptoProvider9getRandomEPhj
libxml-security-c.so.17:_ZNK21XENCEncryptedTypeImpl11getEncodingEv
libxml-security-c.so.17:_ZNK21XENCEncryptedTypeImpl11getMimeTypeEv
libxml-security-c.so.17:_ZNK21XENCEncryptedTypeImpl13getCipherDataEv
libxml-security-c.so.17:_ZNK21XENCEncryptedTypeImpl19getEncryptionMethodEv
libxml-security-c.so.17:_ZNK21XENCEncryptedTypeImpl7getTypeEv
libxml-security-c.so.17:_ZNK21XKMSRecoverResultImpl17getKeyBindingItemEi
libxml-security-c.so.17:_ZNK21XKMSRecoverResultImpl17getKeyBindingSizeEv
libxml-security-c.so.17:_ZNK21XKMSReissueResultImpl17getKeyBindingItemEi
libxml-security-c.so.17:_ZNK21XKMSReissueResultImpl17getKeyBindingSizeEv
libxml-security-c.so.17:_ZNK21XKMSRevokeRequestImpl17getAuthenticationEv
libxml-security-c.so.17:_ZNK21XKMSRevokeRequestImpl17getRevocationCodeEv
libxml-security-c.so.17:_ZNK21XKMSRevokeRequestImpl19getRevokeKeyBindingEv
libxml-security-c.so.17:_ZNK21XKMSStatusRequestImpl13getResponseIdEv
libxml-security-c.so.17:_ZNK22XKMSAuthenticationImpl25getNotBoundAuthenticationEv
libxml-security-c.so.17:_ZNK22XKMSAuthenticationImpl36getKeyBindingAuthenticationSignatureEv
libxml-security-c.so.17:_ZNK22XKMSPendingRequestImpl13getResponseIdEv
libxml-security-c.so.17:_ZNK22XKMSRecoverRequestImpl17getAuthenticationEv
libxml-security-c.so.17:_ZNK22XKMSRecoverRequestImpl20getRecoverKeyBindingEv
libxml-security-c.so.17:_ZNK22XKMSRegisterResultImpl17getKeyBindingItemEi
libxml-security-c.so.17:_ZNK22XKMSRegisterResultImpl17getKeyBindingSizeEv
libxml-security-c.so.17:_ZNK22XKMSReissueRequestImpl17getAuthenticationEv
libxml-security-c.so.17:_ZNK22XKMSReissueRequestImpl20getReissueKeyBindingEv
libxml-security-c.so.17:_ZNK22XKMSReissueRequestImpl29getProofOfPossessionSignatureEv
libxml-security-c.so.17:_ZNK22XKMSValidateResultImpl17getKeyBindingItemEi
libxml-security-c.so.17:_ZNK22XKMSValidateResultImpl17getKeyBindingSizeEv
libxml-security-c.so.17:_ZNK22XSECBinTXFMInputStream14getContentTypeEv
libxml-security-c.so.17:_ZNK22XSECBinTXFMInputStream6curPosEv
libxml-security-c.so.17:_ZNK23XENCCipherReferenceImpl10getElementEv
libxml-security-c.so.17:_ZNK23XENCCipherReferenceImpl13getTransformsEv
libxml-security-c.so.17:_ZNK23XENCCipherReferenceImpl6getURIEv
libxml-security-c.so.17:_ZNK23XKMSRegisterRequestImpl17getAuthenticationEv
libxml-security-c.so.17:_ZNK23XKMSRegisterRequestImpl22getPrototypeKeyBindingEv
libxml-security-c.so.17:_ZNK23XKMSRegisterRequestImpl29getProofOfPossessionSignatureEv
libxml-security-c.so.17:_ZNK23XSECSafeBufferFormatter15getEncodingNameEv
libxml-security-c.so.17:_ZNK24XENCEncryptionMethodImpl10getKeySizeEv
libxml-security-c.so.17:_ZNK24XENCEncryptionMethodImpl12getAlgorithmEv
libxml-security-c.so.17:_ZNK24XENCEncryptionMethodImpl13getOAEPparamsEv
libxml-security-c.so.17:_ZNK24XENCEncryptionMethodImpl15getDigestMethodEv
libxml-security-c.so.17:_ZNK24XENCEncryptionMethodImpl6getMGFEv
libxml-security-c.so.17:_ZNK24XKMSRevokeKeyBindingImpl9getStatusEv
libxml-security-c.so.17:_ZNK24XKMSValidityIntervalImpl12getNotBeforeEv
libxml-security-c.so.17:_ZNK24XKMSValidityIntervalImpl15getNotOnOrAfterEv
libxml-security-c.so.17:_ZNK25OpenSSLCryptoSymmetricKey15getProviderNameEv
libxml-security-c.so.17:_ZNK25OpenSSLCryptoSymmetricKey19getSymmetricKeyTypeEv
libxml-security-c.so.17:_ZNK25OpenSSLCryptoSymmetricKey5cloneEv
libxml-security-c.so.17:_ZNK25XKMSRecoverKeyBindingImpl9getStatusEv
libxml-security-c.so.17:_ZNK25XKMSReissueKeyBindingImpl9getStatusEv
libxml-security-c.so.17:_ZNK25XKMSResponseMechanismImpl26getResponseMechanismStringEv
libxml-security-c.so.17:_ZNK25XSECBinHTTPURIInputStream14getContentTypeEv
libxml-security-c.so.17:_ZNK26XSECKeyInfoResolverDefault5cloneEv
libxml-security-c.so.17:_ZNK27DSIGAlgorithmHandlerDefault5cloneEv
libxml-security-c.so.17:_ZNK27XENCAlgorithmHandlerDefault5cloneEv
libxml-security-c.so.17:_ZNK27XKMSMessageAbstractTypeImpl10getElementEv
libxml-security-c.so.17:_ZNK27XKMSMessageAbstractTypeImpl10getServiceEv
libxml-security-c.so.17:_ZNK27XKMSMessageAbstractTypeImpl12getSignatureEv
libxml-security-c.so.17:_ZNK27XKMSMessageAbstractTypeImpl5getIdEv
libxml-security-c.so.17:_ZNK27XKMSMessageAbstractTypeImpl8getNonceEv
libxml-security-c.so.17:_ZNK27XKMSMessageAbstractTypeImpl8isSignedEv
libxml-security-c.so.17:_ZNK27XKMSPrototypeKeyBindingImpl19getValidityIntervalEv
libxml-security-c.so.17:_ZNK27XKMSPrototypeKeyBindingImpl27getRevocationCodeIdentifierEv
libxml-security-c.so.17:_ZNK27XKMSRequestAbstractTypeImpl16getResponseLimitEv
libxml-security-c.so.17:_ZNK27XKMSRequestAbstractTypeImpl20getOriginalRequestIdEv
libxml-security-c.so.17:_ZNK30XKMSKeyBindingAbstractTypeImpl10getElementEv
libxml-security-c.so.17:_ZNK30XKMSKeyBindingAbstractTypeImpl14getKeyInfoListEv
libxml-security-c.so.17:_ZNK30XKMSKeyBindingAbstractTypeImpl17getUseKeyWithItemEi
libxml-security-c.so.17:_ZNK30XKMSKeyBindingAbstractTypeImpl17getUseKeyWithSizeEv
libxml-security-c.so.17:_ZNK30XKMSKeyBindingAbstractTypeImpl19getExchangeKeyUsageEv
libxml-security-c.so.17:_ZNK30XKMSKeyBindingAbstractTypeImpl20getSignatureKeyUsageEv
libxml-security-c.so.17:_ZNK30XKMSKeyBindingAbstractTypeImpl21getEncryptionKeyUsageEv
libxml-security-c.so.17:_ZNK30XKMSKeyBindingAbstractTypeImpl5getIdEv
libxml-security-c.so.17:_ZNK30XKMSNotBoundAuthenticationImpl11getProtocolEv
libxml-security-c.so.17:_ZNK30XKMSNotBoundAuthenticationImpl8getValueEv
libxml-security-c.so.17:_ZNK7XSECEnv13doPrettyPrintEPN11xercesc_3_17DOMNodeE
libxml-security-c.so.17:_ZNK7XSECEnv14getURIResolverEv
libxml-security-c.so.17:_ZNK7XSECEnv20getIdByAttributeNameEv
libxml-security-c.so.17:_ZNK7XSECEnv26getIdAttributeNameListItemEi
libxml-security-c.so.17:_ZNK7XSECEnv26getIdAttributeNameListSizeEv
libxml-security-c.so.17:_ZNK7XSECEnv27isRegisteredIdAttributeNameEPKt
libxml-security-c.so.17:_ZNK7XSECEnv28getIdAttributeNameListItemNSEi
libxml-security-c.so.17:_ZNK7XSECEnv29isRegisteredIdAttributeNameNSEPKtS1_
libxml-security-c.so.17:_ZNK7XSECEnv30getIdAttributeNameListItemIsNSEi
libxml-security-c.so.17:_ZThn32_N20XENCEncryptedKeyImplD0Ev
libxml-security-c.so.17:_ZThn32_N20XENCEncryptedKeyImplD1Ev
libxml-security-c.so.17:_ZThn8_N18XKMSKeyBindingImplD0Ev
libxml-security-c.so.17:_ZThn8_N18XKMSKeyBindingImplD1Ev
libxml-security-c.so.17:_ZThn8_N20XENCEncryptedKeyImpl4loadEv
libxml-security-c.so.17:_ZThn8_N20XENCEncryptedKeyImplD0Ev
libxml-security-c.so.17:_ZThn8_N20XENCEncryptedKeyImplD1Ev
libxml-security-c.so.17:_ZThn8_N21XENCEncryptedDataImplD0Ev
libxml-security-c.so.17:_ZThn8_N21XENCEncryptedDataImplD1Ev
libxml-security-c.so.17:_ZThn8_N23XKMSQueryKeyBindingImplD0Ev
libxml-security-c.so.17:_ZThn8_N23XKMSQueryKeyBindingImplD1Ev
libxml-security-c.so.17:_ZThn8_N24XKMSRevokeKeyBindingImplD0Ev
libxml-security-c.so.17:_ZThn8_N24XKMSRevokeKeyBindingImplD1Ev
libxml-security-c.so.17:_ZThn8_N25XKMSRecoverKeyBindingImplD0Ev
libxml-security-c.so.17:_ZThn8_N25XKMSRecoverKeyBindingImplD1Ev
libxml-security-c.so.17:_ZThn8_N25XKMSReissueKeyBindingImplD0Ev
libxml-security-c.so.17:_ZThn8_N25XKMSReissueKeyBindingImplD1Ev
libxml-security-c.so.17:_ZThn8_N27XKMSPrototypeKeyBindingImplD0Ev
libxml-security-c.so.17:_ZThn8_N27XKMSPrototypeKeyBindingImplD1Ev
libxml-security-c.so.17:_ZThn8_N28XKMSUnverifiedKeyBindingImplD0Ev
libxml-security-c.so.17:_ZThn8_N28XKMSUnverifiedKeyBindingImplD1Ev
libxml-security-c.so.17:_ZlsR10safeBufferRK23XSECSafeBufferFormatter
